###############################################################################
#
# IAR ELF Linker V7.80.2.11947/W32 for ARM                01/Jan/2018  10:13:39
# Copyright 2007-2016 IAR Systems AB.
#
#    Output file  =  Z3ColorTempLightSoc_3.out
#    Map file     =  
#        C:/SiliconLabs/SimplicityStudio/v4/developer/sdks/gecko_sdk_suite/v1.1/app/builder/Z3ColorTempLightSoc_3/IAR
#        ARM - Default/Z3ColorTempLightSoc_3.map
#    Command line =  
#        ./update-tc-link-key/update-tc-link-key.o ./simple-main/simple-main.o
#        ./sim-eeprom2/EFR32/sim-eeprom2.o ./scenes/scenes-cli.o
#        ./scenes/scenes.o ./scan-dispatch/scan-dispatch.o
#        ./reporting/reporting-cli.o ./reporting/reporting.o
#        ./ota-storage-simple-eeprom/ota-storage-eeprom-page-erase.o
#        ./ota-storage-simple-eeprom/ota-storage-eeprom-read-modify-write.o
#        ./ota-storage-simple-eeprom/ota-storage-eeprom.o
#        ./ota-storage-simple/ota-storage-simple-simulation.o
#        ./ota-storage-simple/ota-storage-simple.o
#        ./ota-storage-common/ota-storage-common-cli.o
#        ./ota-storage-common/ota-storage-common.o ./ota-common/ota-common.o
#        ./ota-client-policy/ota-client-policy.o ./ota-client/ota-client-cli.o
#        ./ota-client/ota-client-page-request.o
#        ./ota-client/ota-client-signature-verify.o ./ota-client/ota-client.o
#        ./ota-bootload/ota-bootload-cli.o ./ota-bootload/ota-bootload-soc.o
#        ./on-off/on-off.o ./network-steering/network-steering-cli.o
#        ./network-steering/network-steering-soc.o
#        ./network-steering/network-steering.o
#        ./manufacturing-library-ota/manufacturing-library-ota.o
#        ./manufacturing-library-cli/manufacturing-library-cli.o
#        ./level-control/level-control.o ./led-temp-pwm/led-temp-pwm.o
#        ./identify/identify-cli.o ./identify/identify.o
#        ./hal-library/EFR32/coexistence-efr32.o
#        ./hal-config/EFR32/hal-config-gpio.o ./hal-config/EFR32/hal-config.o
#        ./groups-server/groups-server-cli.o ./groups-server/groups-server.o
#        ./find-and-bind-target/find-and-bind-target-cli.o
#        ./find-and-bind-target/find-and-bind-target.o
#        ./external-generated-files/bootloader-interface-app.o
#        ./external-generated-files/bootloader-interface.o
#        ./external-generated-files/btl_interface.o
#        ./external-generated-files/btl_interface_storage.o
#        ./end-device-support/end-device-move.o
#        ./end-device-support/end-device-support-cli.o
#        ./end-device-support/end-device-support.o
#        ./end-device-support/polling-common.o
#        ./end-device-support/polling-soc.o ./emlib/em_adc.o ./emlib/em_cmu.o
#        ./emlib/em_core.o ./emlib/em_cryotimer.o ./emlib/em_emu.o
#        ./emlib/em_gpio.o ./emlib/em_ldma.o ./emlib/em_leuart.o
#        ./emlib/em_mpu.o ./emlib/em_msc.o ./emlib/em_prs.o ./emlib/em_rmu.o
#        ./emlib/em_rtcc.o ./emlib/em_system.o ./emlib/em_timer.o
#        ./emlib/em_usart.o ./emlib/em_wdog.o ./emlib/system_efr32mg12p.o
#        ./emdrv/dmadrv.o ./emdrv/gpiointerrupt.o ./emdrv/rtcdriver.o
#        ./emdrv/sleep.o ./emdrv/spidrv.o ./emdrv/tempdrv.o ./emdrv/uartdrv.o
#        ./emdrv/ustimer.o ./ember-minimal-printf/ember-printf.o
#        ./efr32/assert-crash-handlers.o ./efr32/button.o
#        ./efr32/buzzer-efr32.o ./efr32/com.o ./efr32/cstartup-common.o
#        ./efr32/diagnostic.o ./efr32/ext-device.o ./efr32/faults-v7m.o
#        ./efr32/isr-stubs.o ./efr32/led.o ./efr32/mfg-token.o
#        ./efr32/micro-common.o ./efr32/micro.o ./efr32/mpu.o
#        ./efr32/sleep-efm32.o ./efr32/token.o ./eeprom/eeprom-afv2.o
#        ./eeprom/eeprom-cli.o ./eeprom/eeprom.o
#        ./debug-jtag/EFR32/debug-jtag-efr32.o
#        ./debug-basic-library/EFR32/SEGGER_RTT.o
#        ./configuration-server/configuration-server-cli.o
#        ./configuration-server/configuration-server.o
#        ./color-control-server/color-control-server.o ./bulb-ui/bulb-ui.o
#        ./bulb-pwm-driver/EFR32/bulb-pwm-driver-blink.o
#        ./bulb-pwm-driver/EFR32/bulb-pwm-driver-efr32.o
#        ./bulb-pwm-cli/bulb-pwm-cli.o ./basic/basic.o
#        ./antenna-stub/antenna-stub.o ./address-table/address-table-cli.o
#        ./address-table/address-table.o ./adc/EFR32/adc-efr32.o
#        ./Z3ColorTempLightSoc_3_callbacks.o ./af-event.o ./af-main-common.o
#        ./af-main-soc.o ./af-node.o ./af-security-common.o ./af-trust-center.o
#        ./afv2-bookkeeping.o ./attribute-size.o ./attribute-storage.o
#        ./attribute-table.o ./call-command-handler.o ./callback-stub.o
#        ./callbacks.o ./cli.o ./client-api.o ./command-interpreter2.o
#        ./core-cli.o ./crc.o ./crypto-state.o ./descriptors.o ./em_usbd.o
#        ./em_usbdch9.o ./em_usbdep.o ./em_usbhal.o ./em_usbint.o
#        ./em_usbtimer.o ./ember-base-configuration.o ./ember-configuration.o
#        ./endian.o ./library.o ./mem-util.o ./message.o ./multi-network.o
#        ./network-cli.o ./option-cli.o ./plugin-cli.o ./print-formatter.o
#        ./print.o ./process-cluster-message.o ./process-global-message.o
#        ./random.o ./security-address-cache.o ./security-cli.o ./serial.o
#        ./service-discovery-common.o ./service-discovery-soc.o
#        ./stack-handler-stub.o ./time-util.o ./token-def.o ./util.o
#        ./zcl-cli.o ./zdo-cli.o ./zigbee-device-common.o
#        ./zigbee-device-library.o -o Z3ColorTempLightSoc_3.out --config
#        C:/SiliconLabs/SimplicityStudio/v4/developer/sdks/gecko_sdk_suite/v1.1//platform/base/hal/micro/cortexm3/efm32/iar-cfg.icf
#        --config_def APP_GECKO_INFO_PAGE_BTL=1 --config_def FLASH_SIZE=1048576
#        --config_def RAM_SIZE=262144 --no_wrap_diagnostics
#        C:/SiliconLabs/SimplicityStudio/v4/developer/sdks/gecko_sdk_suite/v1.1//protocol/zigbee_5.10/build/cbke-library-dsa-sign-stub-cortexm3-iar-efr32mg12p-rail/cbke-library-dsa-sign-stub.a
#        C:/SiliconLabs/SimplicityStudio/v4/developer/sdks/gecko_sdk_suite/v1.1//protocol/zigbee_5.10/build/hal-library-cortexm3-iar-efr32mg12p-rail/hal-library.a
#        C:/SiliconLabs/SimplicityStudio/v4/developer/sdks/gecko_sdk_suite/v1.1//protocol/zigbee_5.10/build/sim-eeprom2-library-cortexm3-iar-efr32mg12p-rail/sim-eeprom2-library.a
#        C:/SiliconLabs/SimplicityStudio/v4/developer/sdks/gecko_sdk_suite/v1.1//protocol/zigbee_5.10/build/sim-eeprom2-1to2-upgrade-library-cortexm3-iar-efr32mg12p-rail/sim-eeprom2-1to2-upgrade-library.a
#        C:/SiliconLabs/SimplicityStudio/v4/developer/sdks/gecko_sdk_suite/v1.1//protocol/zigbee_5.10/build/cbke-283k1-stub-library-cortexm3-iar-efr32mg12p-rail/cbke-283k1-stub-library.a
#        C:/SiliconLabs/SimplicityStudio/v4/developer/sdks/gecko_sdk_suite/v1.1//protocol/zigbee_5.10/build/end-device-bind-stub-library-cortexm3-iar-efr32mg12p-rail/end-device-bind-stub-library.a
#        C:/SiliconLabs/SimplicityStudio/v4/developer/sdks/gecko_sdk_suite/v1.1//protocol/zigbee_5.10/build/debug-basic-library-cortexm3-iar-efr32mg12p-rail/debug-basic-library.a
#        C:/SiliconLabs/SimplicityStudio/v4/developer/sdks/gecko_sdk_suite/v1.1//protocol/zigbee_5.10/build/cbke-library-dsa-verify-stub-cortexm3-iar-efr32mg12p-rail/cbke-library-dsa-verify-stub.a
#        C:/SiliconLabs/SimplicityStudio/v4/developer/sdks/gecko_sdk_suite/v1.1//protocol/zigbee_5.10/build/security-library-link-keys-stub-cortexm3-iar-efr32mg12p-rail/security-library-link-keys-stub.a
#        C:/SiliconLabs/SimplicityStudio/v4/developer/sdks/gecko_sdk_suite/v1.1//protocol/zigbee_5.10/build/binding-table-library-cortexm3-iar-efr32mg12p-rail/binding-table-library.a
#        C:/SiliconLabs/SimplicityStudio/v4/developer/sdks/gecko_sdk_suite/v1.1//protocol/zigbee_5.10/build/gp-stub-library-cortexm3-iar-efr32mg12p-rail/gp-stub-library.a
#        C:/SiliconLabs/SimplicityStudio/v4/developer/sdks/gecko_sdk_suite/v1.1//protocol/zigbee_5.10/build/rf4ce-stack-stub-library-cortexm3-iar-efr32mg12p-rail/rf4ce-stack-stub-library.a
#        C:/SiliconLabs/SimplicityStudio/v4/developer/sdks/gecko_sdk_suite/v1.1//protocol/zigbee_5.10/build/zigbee-pro-leaf-stack-cortexm3-iar-efr32mg12p-rail/zigbee-pro-leaf-stack.a
#        C:/SiliconLabs/SimplicityStudio/v4/developer/sdks/gecko_sdk_suite/v1.1//protocol/zigbee_5.10/build/install-code-library-cortexm3-iar-efr32mg12p-rail/install-code-library.a
#        C:/SiliconLabs/SimplicityStudio/v4/developer/sdks/gecko_sdk_suite/v1.1//protocol/zigbee_5.10/build/packet-validate-library-cortexm3-iar-efr32mg12p-rail/packet-validate-library.a
#        C:/SiliconLabs/SimplicityStudio/v4/developer/sdks/gecko_sdk_suite/v1.1//platform/radio/rail_lib/autogen/librail_release/librail_efr32xg12_iar_release.a
#        C:/SiliconLabs/SimplicityStudio/v4/developer/sdks/gecko_sdk_suite/v1.1//protocol/zigbee_5.10/build/cbke-stub-library-cortexm3-iar-efr32mg12p-rail/cbke-stub-library.a
#        C:/SiliconLabs/SimplicityStudio/v4/developer/sdks/gecko_sdk_suite/v1.1//protocol/zigbee_5.10/build/zll-stub-library-cortexm3-iar-efr32mg12p-rail/zll-stub-library.a
#        C:/SiliconLabs/SimplicityStudio/v4/developer/sdks/gecko_sdk_suite/v1.1//protocol/zigbee_5.10/build/security-library-core-cortexm3-iar-efr32mg12p-rail/security-library-core.a
#        C:/SiliconLabs/SimplicityStudio/v4/developer/sdks/gecko_sdk_suite/v1.1//protocol/zigbee_5.10/build/cbke-library-dsa-verify-283k1-stub-cortexm3-iar-efr32mg12p-rail/cbke-library-dsa-verify-283k1-stub.a
#        C:/SiliconLabs/SimplicityStudio/v4/developer/sdks/gecko_sdk_suite/v1.1//protocol/zigbee_5.10/build/enhanced-beacon-request-stub-library-cortexm3-iar-efr32mg12p-rail/enhanced-beacon-request-stub-library.a
#        C:/SiliconLabs/SimplicityStudio/v4/developer/sdks/gecko_sdk_suite/v1.1//protocol/zigbee_5.10/build/debug-extended-stub-library-cortexm3-iar-efr32mg12p-rail/debug-extended-stub-library.a
#        C:/SiliconLabs/SimplicityStudio/v4/developer/sdks/gecko_sdk_suite/v1.1//protocol/zigbee_5.10/build/cbke-163k1-stub-library-cortexm3-iar-efr32mg12p-rail/cbke-163k1-stub-library.a
#        C:/SiliconLabs/SimplicityStudio/v4/developer/sdks/gecko_sdk_suite/v1.1//protocol/zigbee_5.10/build/mfglib-library-cortexm3-iar-efr32mg12p-rail/mfglib-library.a
#        C:/SiliconLabs/SimplicityStudio/v4/developer/sdks/gecko_sdk_suite/v1.1//protocol/zigbee_5.10/build/multi-network-stub-library-cortexm3-iar-efr32mg12p-rail/multi-network-stub-library.a
#        --entry halEntryPoint --map
#        "C:/SiliconLabs/SimplicityStudio/v4/developer/sdks/gecko_sdk_suite/v1.1/app/builder/Z3ColorTempLightSoc_3/IAR
#        ARM - Default/Z3ColorTempLightSoc_3.map" --log_file
#        "C:/SiliconLabs/SimplicityStudio/v4/developer/sdks/gecko_sdk_suite/v1.1/app/builder/Z3ColorTempLightSoc_3/IAR
#        ARM - Default/Z3ColorTempLightSoc_3.log" --log
#        initialization,modules,sections,veneers --diag_suppress=Lp012
#        --diag_suppress=Lp012 --redirect _Printf=_PrintfSmall --redirect
#        _Scanf=_ScanfFull
#
###############################################################################

*******************************************************************************
*** RUNTIME MODEL ATTRIBUTES
***

__SystemLibrary = DLib


*******************************************************************************
*** PLACEMENT SUMMARY
***

"HEADERS":
       place at start of [0x00000000-0x000001ff] { block HEADER_block };
"APP ro":
       place at start of [0x00000200-0x000fffff] { block APPRO_block };
"NVM&SIMEE":
       place at end of [0x00000200-0x000fffff] {
          zi section NVM, zi section SIMEE, zi section INTERNAL_STORAGE,
          zi section PSSTORE };
"APP rw":
       place at end of [0x20000000-0x2003ffef] { block APPRW_block };
"Heap":
       place at start of [0x20000000-0x2003ffef] { overlay EMHEAP_overlay };
"Guard":
       place in [from 0x20000000 to 0x2003ffef] { rw section GUARD_REGION };
do not initialize { rw };
initialize manually with packing = copy, complex ranges {
   section .data, section .textrw, rw section __DLIB_PERTHREAD };

  Section                 Kind        Address     Size  Object
  -------                 ----        -------     ----  ------
"HEADERS":                                        0xac
  HEADER_block                     0x00000000     0xac  <Block>
    AAT                   const    0x00000000     0xac  cstartup-common.o [14]
                                 - 0x000000ac     0xac

"APP ro":                                      0x31eb4
  APPRO_block                      0x00000200  0x31eb4  <Block>
    .intvec               const    0x00000200    0x10c  cstartup-common.o [14]
    .textrw_init                   0x0000030c    0x214  <Block>
      Initializer bytes   const    0x0000030c    0x214  <for .textrw-1>
    .text                          0x00000520  0x2b506  <Block>
      .text               ro code  0x00000520    0x12c  update-tc-link-key.o [43]
      .text               ro code  0x0000064c    0x56c  af-main-soc.o [1]
      .text               ro code  0x00000bb8    0xd14  aps-security.o [67]
      .text               ro code  0x000018cc     0xd2  mem-util.o [1]
      .text               ro code  0x000019a0     0xea  zigbee-device-common.o [1]
      .text               ro code  0x00001a8c    0x560  zigbee-stack.o [71]
      .text               ro code  0x00001fec    0x50c  aps-keys.o [67]
      .text               ro code  0x000024f8    0x704  network-steering.o [29]
      .text               ro code  0x00002bfc     0x88  print.o [1]
      .text               ro code  0x00002c84    0x12c  print-formatter.o [1]
      .text               ro code  0x00002db0      0x8  em_core.o [17]
      .text               ro code  0x00002db8     0xb2  serial.o [1]
      .text               ro code  0x00002e6c    0x164  micro.o [14]
      .text               ro code  0x00002fd0     0xc0  cstartup-common.o [14]
      .text               ro code  0x00003090    0x3a4  diagnostic.o [14]
      .text               ro code  0x00003434    0x124  callback-stub.o [1]
      .text               ro code  0x00003558    0x210  assert-crash-handlers.o [14]
      .text               ro code  0x00003768     0x74  multi-network.o [1]
      .text               ro code  0x000037dc    0x7e4  af-main-common.o [1]
      .text               ro code  0x00003fc0    0x9b4  attribute-storage.o [1]
      .text               ro code  0x00004974     0x4c  afv2-bookkeeping.o [1]
      .text               ro code  0x000049c0     0x1c  security-address-cache.o [1]
      .text               ro code  0x000049dc    0x78c  command-interpreter2.o [1]
      .text               ro code  0x00005168   0x118c  phy.o [71]
      .text               ro code  0x000062f4     0xc8  micro-common.o [14]
      .text               ro code  0x000063bc     0x10  crypto-state.o [1]
      .text               ro code  0x000063cc    0x1a2  af-event.o [1]
      .text               ro code  0x00006570    0x16c  mfg-token.o [14]
      .text               ro code  0x000066dc    0x1c8  ember-stack-common.o [71]
      .text               ro code  0x000068a4    0xa08  application-support.o [71]
      .text               ro code  0x000072ac    0x100  zigbee-dispatch.o [71]
      .text               ro code  0x000073ac    0x310  address-table.o [71]
      .text               ro code  0x000076bc    0x298  zigbee-device-library.o [1]
      .text               ro code  0x00007954    0x4c8  binding-table.o [45]
      .text               ro code  0x00007e1c    0x230  ember-multi-network-stub.o [63]
      .text               ro code  0x0000804c    0x6c0  packet-buffer.o [71]
      .text               ro code  0x0000870c   0x1564  association.o [71]
      .text               ro code  0x00009c70     0x76  ABImemcpy_unaligned.o [66]
      .text               ro code  0x00009ce8    0x188  scan-dispatch.o [39]
      .text               ro code  0x00009e70     0x70  install-code-tokens.o [59]
      .text               ro code  0x00009ee0      0xe  cbke-crypto-engine-stub.o [51]
      .text               ro code  0x00009ef0    0x580  crypto.o [71]
      .text               ro code  0x0000a470    0x434  aps-encryption.o [67]
      .text               ro code  0x0000a8a4     0x1a  debug-extended-stub.o [53]
      .text               ro code  0x0000a8c0    0x5e4  zigbee-packet-header.o [71]
      .text               ro code  0x0000aea4    0x24c  packet-header.o [71]
      .text               ro code  0x0000b0f0   0x1658  network.o [71]
      .text               ro code  0x0000c748     0x34  ember-configuration.o [1]
      .text               ro code  0x0000c77c     0x5a  byte-utilities.o [71]
      .text               ro code  0x0000c7d8    0x548  trust-center-util.o [67]
      .text               ro code  0x0000cd20    0x3e6  leave.o [71]
      .text               ro code  0x0000d106     0x34  child-stub.o [71]
      .text               ro code  0x0000d13c    0x644  neighbor.o [71]
      .text               ro code  0x0000d780    0x370  aps-keys-transient.o [67]
      .text               ro code  0x0000daf0     0x48  child-table.o [71]
      .text               ro code  0x0000db38    0x1b8  zigbee-neighbor.o [71]
      .text               ro code  0x0000dcf0    0x178  token-cache.o [71]
      .text               ro code  0x0000de68     0x62  hmac.o [67]
      .text               ro code  0x0000deca      0xe  aps-keys-full-stub.o [68]
      .text               ro code  0x0000ded8     0xd0  leaf-routing-stub.o [71]
      .text               ro code  0x0000dfa8     0xd8  aes.o [71]
      .text               ro code  0x0000e080     0x66  ABImemset.o [66]
      .text               ro code  0x0000e0e8    0x284  debug-jtag-efr32.o [12]
      .text               ro code  0x0000e36c     0x94  ember-library.o [71]
      .text               ro code  0x0000e400     0xe0  token.o [14]
      .text               ro code  0x0000e4e0     0x12  phy-util.o [71]
      .text               ro code  0x0000e4f4    0x2e8  debug.o [52]
      .text               ro code  0x0000e7dc    0x244  event-control.o [71]
      .text               ro code  0x0000ea20      0xc  em_core.o [17]
      .text               ro code  0x0000ea2c      0x6  em_core.o [17]
      .text               ro code  0x0000ea34    0x440  mac-arbiter.o [71]
      .text               ro code  0x0000ee74      0x6  cbke-crypto-engine-163k1-stub.o [46]
      .text               ro code  0x0000ee7a      0x6  cbke-crypto-engine-283k1-stub.o [47]
      .text               ro code  0x0000ee80     0x32  zll-stubs.o [72]
      .text               ro code  0x0000eeb4    0x160  broadcast.o [71]
      .text               ro code  0x0000f014    0x2bc  mac-receive.o [71]
      .text               ro code  0x0000f2d0    0x16c  child-aging.o [71]
      .text               ro code  0x0000f43c    0x948  aps-retry.o [71]
      .text               ro code  0x0000fd84     0x44  micro-common-internal.o [58]
      .text               ro code  0x0000fdc8    0x2b6  retry.o [71]
      .text               ro code  0x00010080     0x68  rf4ce-stack-stubs.o [65]
      .text               ro code  0x000100e8     0x80  security-config-mfg-3xx.o [67]
      .text               ro code  0x00010168     0x78  network-steering-soc.o [29]
      .text               ro code  0x000101e0    0x39c  configuration-server.o [10]
      .text               ro code  0x0001057c     0x50  random.o [1]
      .text               ro code  0x000105cc      0x2  af-security-common.o [1]
      .text               ro code  0x000105d0    0x2a2  ember-printf.o [15]
      .text               ro code  0x00010874    0x188  message.o [1]
      .text               ro code  0x000109fc    0x9d6  com.o [14]
      .text               ro code  0x000113d4     0xec  hal-config.o [22]
      .text               ro code  0x000114c0    0x760  rtcdriver.o [16]
      .text               ro code  0x00011c20    0x274  tempdrv.o [16]
      .text               ro code  0x00011e94    0x918  em_emu.o [17]
      .text               ro code  0x000127ac    0x152  sleep-efm32.o [14]
      .text               ro code  0x00012900     0xe2  system-timer.o [58]
      .text               ro code  0x000129e4    0x184  micro-internal.o [58]
      .text               ro code  0x00012b68      0x4  hal-config-gpio.o [22]
      .text               ro code  0x00012b6c    0x1a8  coexistence-efr32.o [23]
      .text               ro code  0x00012d14     0x98  em_rmu.o [17]
      .text               ro code  0x00012dac      0x8  em_core.o [17]
      .text               ro code  0x00012db4    0x88e  util.o [1]
      .text               ro code  0x00013644    0x168  end-device-support.o [18]
      .text               ro code  0x000137ac    0x3b4  service-discovery-common.o [1]
      .text               ro code  0x00013b60    0x570  bulb-ui.o [8]
      .text               ro code  0x000140d0    0x638  color-control-server.o [9]
      .text               ro code  0x00014708    0x144  end-device-move.o [18]
      .text               ro code  0x0001484c    0x550  level-control.o [26]
      .text               ro code  0x00014d9c    0x22c  manufacturing-library-ota.o [28]
      .text               ro code  0x00014fc8    0x102  on-off.o [30]
      .text               ro code  0x000150cc    0xeb2  ota-client.o [32]
      .text               ro code  0x00015f80    0x4e6  attribute-table.o [1]
      .text               ro code  0x00016468     0x8e  polling-soc.o [18]
      .text               ro code  0x000164f8    0x378  core-cli.o [1]
      .text               ro code  0x00016870    0x140  phy.o [60]
      .text               ro code  0x000169b0     0xd4  rail_calibration.o [60]
      .text               ro code  0x00016a84     0x66  rail_autoack.o [60]
      .text               ro code  0x00016aea     0x36  rail_rx.o [60]
      .text               ro code  0x00016b20    0x13a  rail_rf.o [60]
      .text               ro code  0x00016c5c    0x7ac  pa.o [60]
      .text               ro code  0x00017408     0x84  rail_tx.o [60]
      .text               ro code  0x0001748c     0x1e  duty-cycle-stub.o [71]
      .text               ro code  0x000174aa      0x8  rail_data.o [60]
      .text               ro code  0x000174b4    0xeb4  rail_rf_hal.o [60]
      .text               ro code  0x00018368    0x140  rail_ieee802154.o [60]
      .text               ro code  0x000184a8     0x18  eui64.o [71]
      .text               ro code  0x000184c0    0x114  pti.o [60]
      .text               ro code  0x000185d4    0x25c  mac-phy.o [71]
      .text               ro code  0x00018830    0x580  bufc.o [60]
      .text               ro code  0x00018db0     0x18  mac-indirect-stub.o [71]
      .text               ro code  0x00018dc8    0x10c  symbol-timer.o [71]
      .text               ro code  0x00018ed4     0x90  ember-base-configuration.o [1]
      .text               ro code  0x00018f64    0xbf8  em_cmu.o [17]
      .text               ro code  0x00019b5c     0x18  em_wdog.o [17]
      Veneer              ro code  0x00019b74      0x8  - Linker created -
      Veneer              ro code  0x00019b7c      0x8  - Linker created -
      Veneer              ro code  0x00019b84      0x8  - Linker created -
      .text               ro code  0x00019b8c     0xc8  flash.o [58]
      .text               ro code  0x00019c54    0x35c  management.o [71]
      .text               ro code  0x00019fb0      0x4  cbke-crypto-engine-dsa-sign-stub.o [48]
      .text               ro code  0x00019fb4    0x39c  packet-validate.o [64]
      .text               ro code  0x0001a350    0x6fc  zigbee-device-util.o [71]
      .text               ro code  0x0001aa4c    0x4b8  mac.o [71]
      .text               ro code  0x0001af04    0x318  child-handling.o [71]
      .text               ro code  0x0001b21c    0x334  random-id.o [71]
      .text               ro code  0x0001b550    0x418  scan.o [71]
      .text               ro code  0x0001b968    0x368  command.o [71]
      .text               ro code  0x0001bcd0     0x60  mac-info-element-parsing-stub.o [56]
      .text               ro code  0x0001bd30      0x8  enhanced-beacon-request-stub.o [56]
      .text               ro code  0x0001bd38    0x2c0  zdo-channel.o [71]
      .text               ro code  0x0001bff8      0xc  gp-stub.o [57]
      .text               ro code  0x0001c004    0x14a  aes-mmo.o [67]
      .text               ro code  0x0001c150     0x60  unicast-table.o [71]
      .text               ro code  0x0001c1b0    0x280  jit.o [71]
      .text               ro code  0x0001c430     0xb8  led.o [14]
      .text               ro code  0x0001c4e8    0x348  mac-header.o [71]
      .text               ro code  0x0001c830    0x148  route-error.o [71]
      .text               ro code  0x0001c978     0x44  af-trust-center.o [1]
      .text               ro code  0x0001c9bc    0x130  em_crypto.o [71]
      .text               ro code  0x0001caec    0x18c  em_gpio.o [17]
      .text               ro code  0x0001cc78    0x1c4  SEGGER_RTT.o [11]
      .text               ro code  0x0001ce3c     0x26  crc.o [1]
      .text               ro code  0x0001ce64     0x94  sim-eeprom2.o [41]
      .text               ro code  0x0001cef8   0x12e0  sim-eeprom2-internal.o [70]
      .text               ro code  0x0001e1d8     0x1a  em_core.o [17]
      .text               ro code  0x0001e1f4    0x2b4  ustimer.o [16]
      .text               ro code  0x0001e4a8     0x36  strlen.o [66]
      .text               ro code  0x0001e4e0    0x1fc  client-api.o [1]
      .text               ro code  0x0001e6dc   0x1cc8  uartdrv.o [16]
      .text               ro code  0x000203a4    0x148  em_usart.o [17]
      .text               ro code  0x000204ec    0x104  em_leuart.o [17]
      .text               ro code  0x000205f0      0x6  ABImemclr4.o [66]
      .text               ro code  0x000205f8     0xac  system_efr32mg12p.o [17]
      .text               ro code  0x000206a4    0x192  button.o [14]
      .text               ro code  0x00020838     0x70  em_rtcc.o [17]
      .text               ro code  0x000208a8     0xee  I64DivMod.o [66]
      .text               ro code  0x00020998     0x44  em_core.o [17]
      .text               ro code  0x000209dc      0x4  em_core.o [17]
      .text               ro code  0x000209e0     0xa4  mpu.o [14]
      .text               ro code  0x00020a84     0x5c  bulb-pwm-driver-efr32.o [7]
      .text               ro code  0x00020ae0    0x2ae  eeprom.o [13]
      .text               ro code  0x00020d90    0x54c  led-temp-pwm.o [25]
      .text               ro code  0x000212dc    0x9b0  reporting.o [38]
      .text               ro code  0x00021c8c      0x8  time-util.o [1]
      .text               ro code  0x00021c94    0x420  groups-server.o [21]
      .text               ro code  0x000220b4     0x64  process-cluster-message.o [1]
      .text               ro code  0x00022118    0x3d8  process-global-message.o [1]
      .text               ro code  0x000224f0     0x56  service-discovery-soc.o [1]
      .text               ro code  0x00022548    0x4a8  manufacturing-library-cli.o [27]
      .text               ro code  0x000229f0     0x48  find-and-bind-target.o [20]
      .text               ro code  0x00022a38    0x208  bulb-pwm-driver-blink.o [7]
      .text               ro code  0x00022c40    0xc7c  scenes.o [40]
      .text               ro code  0x000238bc    0x256  mfglib.o [62]
      .text               ro code  0x00023b14    0x342  ota-storage-simple.o [36]
      .text               ro code  0x00023e56     0xae  ota-client-policy.o [33]
      .text               ro code  0x00023f04     0x20  ota-client-page-request.o [32]
      .text               ro code  0x00023f24     0xf6  ota-common.o [34]
      .text               ro code  0x0002401c    0x2f8  ota-storage-eeprom-page-erase.o [37]
      .text               ro code  0x00024314    0x188  ota-storage-common.o [35]
      .text               ro code  0x0002449c    0x220  ota-storage-eeprom.o [37]
      .text               ro code  0x000246bc      0x4  ota-client-signature-verify.o [32]
      .text               ro code  0x000246c0     0x24  attribute-size.o [1]
      .text               ro code  0x000246e4     0x70  polling-common.o [18]
      .text               ro code  0x00024754    0x6c0  radio.o [60]
      .text               ro code  0x00024e14    0x2e4  synth.o [60]
      .text               ro code  0x000250f8    0x5ec  protimer.o [60]
      .text               ro code  0x000256e4    0x398  timings.o [60]
      .text               ro code  0x00025a7c    0xea4  generic_phy.o [60]
      .text               ro code  0x00026920    0x120  rf_rand.o [60]
      .text               ro code  0x00026a40      0x8  em_core.o [17]
      .text               ro code  0x00026a48      0x6  em_core.o [17]
      .text               ro code  0x00026a4e      0xc  rail_assert.o [60]
      .text               ro code  0x00026a5c    0x782  ir_cal.o [60]
      .text               ro code  0x000271e0     0x50  tempcal.o [60]
      .text               ro code  0x00027230    0x1ec  rf_test.o [60]
      .text               ro code  0x0002741c    0x134  rail_ieee802154_rf_hal.o [60]
      .text               ro code  0x00027550     0xe4  radio_cmu.o [60]
      .text               ro code  0x00027634      0x4  antenna-stub.o [4]
      .text               ro code  0x00027638     0x40  em_msc.o [17]
      .text               ro code  0x00027678    0x988  zigbee-device.o [71]
      .text               ro code  0x00028000      0x6  end-device-bind-stub.o [55]
      .text               ro code  0x00028008    0x440  sim-eeprom2-internal-1to2upgrade.o [69]
      .text               ro code  0x00028448    0x12c  em_timer.o [17]
      .text               ro code  0x00028574    0x450  dmadrv.o [16]
      .text               ro code  0x000289c4     0xd4  gpiointerrupt.o [16]
      .text               ro code  0x00028a98     0x4c  em_core.o [17]
      .text               ro code  0x00028ae4     0x32  ABImemset48.o [66]
      .text               ro code  0x00028b18      0x2  I64DivZer.o [66]
      .text               ro code  0x00028b1c     0x64  em_mpu.o [17]
      .text               ro code  0x00028b80      0xe  register-access.o [58]
      .text               ro code  0x00028b90    0x252  bootloader-interface-app.o [19]
      .text               ro code  0x00028de4    0x602  call-command-handler.o [1]
      .text               ro code  0x000293e6      0x8  eeprom-afv2.o [13]
      .text               ro code  0x000293f0     0x18  ota-bootload-soc.o [31]
      .text               ro code  0x00029408     0xb6  eeprom-cli.o [13]
      .text               ro code  0x000294c0     0x48  em_system.o [17]
      .text               ro code  0x00029508     0x2a  phy_utils.o [60]
      .text               ro code  0x00029534      0x6  ABImemclr.o [66]
      .text               ro code  0x0002953c    0x1b2  aux_pll.o [60]
      .text               ro code  0x000296f0    0x1c0  zdo-binding-table.o [45]
      .text               ro code  0x000298b0    0x238  em_ldma.o [17]
      .text               ro code  0x00029ae8     0x2c  basic.o [5]
      .text               ro code  0x00029b14    0x12e  identify.o [24]
      .text               ro code  0x00029c42     0x1c  Z3ColorTempLightSoc_3_callbacks.o [1]
      .text               ro code  0x00029c60    0x140  ota-storage-common-cli.o [35]
      .text               ro code  0x00029da0     0xa4  ota-client-cli.o [32]
      .text               ro code  0x00029e44     0x2c  ota-bootload-cli.o [31]
      .text               ro code  0x00029e70     0x5e  bootloader-interface.o [19]
      .text               ro code  0x00029ed0    0x1b8  em_adc.o [17]
      .text               ro code  0x0002a088      0x2  faults-v7m.o [14]
      .text               ro code  0x0002a08c      0x2  faults-v7m.o [14]
      .text               ro code  0x0002a090      0x2  faults-v7m.o [14]
      .text               ro code  0x0002a094      0x2  faults-v7m.o [14]
      .text               ro code  0x0002a098      0x2  faults-v7m.o [14]
      .text               ro code  0x0002a09c      0x2  faults-v7m.o [14]
      .text               ro code  0x0002a0a0      0x2  faults-v7m.o [14]
      .text               ro code  0x0002a0a4     0x70  faults-v7m.o [14]
      .text               ro code  0x0002a114      0x4  isr-stubs.o [14]
      .text               ro code  0x0002a118    0x264  configuration-server-cli.o [10]
      .text               ro code  0x0002a37c    0x10c  bulb-pwm-cli.o [6]
      .text               ro code  0x0002a488    0x148  adc-efr32.o [2]
      .text               ro code  0x0002a5d0    0x20c  network-cli.o [1]
      .text               ro code  0x0002a7dc    0x250  option-cli.o [1]
      .text               ro code  0x0002aa2c    0x844  zcl-cli.o [1]
      .text               ro code  0x0002b270    0x52e  zdo-cli.o [1]
      .text               ro code  0x0002b7a0    0x184  cstartup-iar.o [58]
      .text               ro code  0x0002b924      0xc  memcpy.o [54]
      .text               ro code  0x0002b930     0x14  memset.o [54]
      .text               ro code  0x0002b944     0x12  simple-main.o [42]
      .text               ro code  0x0002b958     0xac  rfsense.o [60]
      .text               ro code  0x0002ba04     0x22  fpinit_M.o [61]
    .rodata               const    0x0002bb00   0x101c  generic_efr32xg12_seq.o [60]
    .rodata               const    0x0002cb1c     0x10  update-tc-link-key.o [43]
    .rodata               const    0x0002cb2c     0x14  update-tc-link-key.o [43]
    .rodata               const    0x0002cb40     0x2c  update-tc-link-key.o [43]
    .rodata               const    0x0002cb6c     0x14  update-tc-link-key.o [43]
    .rodata               const    0x0002cb80      0xc  update-tc-link-key.o [43]
    .rodata               const    0x0002cb8c     0x1c  sim-eeprom2.o [41]
    .rodata               const    0x0002cba8     0x30  sim-eeprom2.o [41]
    .rodata               const    0x0002cbd8      0x4  sim-eeprom2.o [41]
    .rodata               const    0x0002cbdc     0x38  sim-eeprom2.o [41]
    .rodata               const    0x0002cc14      0xc  scenes.o [40]
    .rodata               const    0x0002cc20     0x10  scenes.o [40]
    .rodata               const    0x0002cc30     0x10  scenes.o [40]
    .rodata               const    0x0002cc40      0xc  scenes.o [40]
    .rodata               const    0x0002cc4c      0x8  scenes.o [40]
    .rodata               const    0x0002cc54     0x10  scenes.o [40]
    .rodata               const    0x0002cc64      0xc  scenes.o [40]
    .rodata               const    0x0002cc70      0xc  scenes.o [40]
    .rodata               const    0x0002cc7c     0x18  scenes.o [40]
    .rodata               const    0x0002cc94     0x14  scenes.o [40]
    .rodata               const    0x0002cca8     0x14  scenes.o [40]
    .rodata               const    0x0002ccbc     0x18  scenes.o [40]
    .rodata               const    0x0002ccd4     0x10  scenes.o [40]
    .rodata               const    0x0002cce4     0x20  ota-storage-eeprom-page-erase.o [37]
    .rodata               const    0x0002cd04     0x18  ota-storage-eeprom.o [37]
    .rodata               const    0x0002cd1c      0xc  ota-storage-eeprom.o [37]
    .rodata               const    0x0002cd28      0xc  ota-storage-eeprom.o [37]
    .rodata               const    0x0002cd34      0x4  ota-storage-simple.o [36]
    .rodata               const    0x0002cd38     0x10  ota-storage-common.o [35]
    .rodata               const    0x0002cd48     0x14  ota-common.o [34]
    .rodata               const    0x0002cd5c      0xc  ota-common.o [34]
    .rodata               const    0x0002cd68     0x20  ota-client-cli.o [32]
    .rodata               const    0x0002cd88      0x8  ota-client-cli.o [32]
    .rodata               const    0x0002cd90      0x8  ota-client-cli.o [32]
    .rodata               const    0x0002cd98      0xc  ota-client.o [32]
    .rodata               const    0x0002cda4      0xc  ota-client.o [32]
    .rodata               const    0x0002cdb0      0x4  ota-client.o [32]
    .rodata               const    0x0002cdb4      0x8  ota-client.o [32]
    .rodata               const    0x0002cdbc     0x14  ota-bootload-soc.o [31]
    .rodata               const    0x0002cdd0     0x14  on-off.o [30]
    .rodata               const    0x0002cde4     0x2c  network-steering-soc.o [29]
    .rodata               const    0x0002ce10      0x8  network-steering.o [29]
    .rodata               const    0x0002ce18     0x30  network-steering.o [29]
    .rodata               const    0x0002ce48     0x30  network-steering.o [29]
    .rodata               const    0x0002ce78     0x2c  network-steering.o [29]
    .rodata               const    0x0002cea4     0x30  network-steering.o [29]
    .rodata               const    0x0002ced4     0x30  network-steering.o [29]
    .rodata               const    0x0002cf04     0x30  network-steering.o [29]
    .rodata               const    0x0002cf34     0x30  network-steering.o [29]
    .rodata               const    0x0002cf64     0x30  network-steering.o [29]
    .rodata               const    0x0002cf94     0x3c  network-steering.o [29]
    .rodata               const    0x0002cfd0     0x20  network-steering.o [29]
    .rodata               const    0x0002cff0     0x14  network-steering.o [29]
    .rodata               const    0x0002d004     0x24  network-steering.o [29]
    .rodata               const    0x0002d028     0x20  network-steering.o [29]
    .rodata               const    0x0002d048     0x30  network-steering.o [29]
    .rodata               const    0x0002d078     0x14  network-steering.o [29]
    .rodata               const    0x0002d08c     0x24  network-steering.o [29]
    .rodata               const    0x0002d0b0     0x1c  network-steering.o [29]
    .rodata               const    0x0002d0cc     0x24  network-steering.o [29]
    .rodata               const    0x0002d0f0     0x14  network-steering.o [29]
    .rodata               const    0x0002d104     0x28  network-steering.o [29]
    .rodata               const    0x0002d12c     0x14  network-steering.o [29]
    .rodata               const    0x0002d140     0x2c  network-steering.o [29]
    .rodata               const    0x0002d16c     0x2c  network-steering.o [29]
    .rodata               const    0x0002d198     0x2c  network-steering.o [29]
    .rodata               const    0x0002d1c4     0x2c  network-steering.o [29]
    .rodata               const    0x0002d1f0     0x18  network-steering.o [29]
    .rodata               const    0x0002d208     0x2c  network-steering.o [29]
    .rodata               const    0x0002d234     0x10  network-steering.o [29]
    .rodata               const    0x0002d244     0x2c  network-steering.o [29]
    .rodata               const    0x0002d270     0x14  network-steering.o [29]
    .rodata               const    0x0002d284     0x10  network-steering.o [29]
    .rodata               const    0x0002d294      0x8  network-steering.o [29]
    .rodata               const    0x0002d29c      0x8  network-steering.o [29]
    .rodata               const    0x0002d2a4     0x2c  network-steering.o [29]
    .rodata               const    0x0002d2d0     0x30  network-steering.o [29]
    .rodata               const    0x0002d300     0x1c  network-steering.o [29]
    .rodata               const    0x0002d31c     0x24  network-steering.o [29]
    .rodata               const    0x0002d340     0x10  network-steering.o [29]
    .rodata               const    0x0002d350     0x10  network-steering.o [29]
    .rodata               const    0x0002d360     0x10  network-steering.o [29]
    .rodata               const    0x0002d370     0x10  manufacturing-library-ota.o [28]
    .rodata               const    0x0002d380     0x10  manufacturing-library-ota.o [28]
    .rodata               const    0x0002d390      0x8  manufacturing-library-ota.o [28]
    .rodata               const    0x0002d398     0x20  manufacturing-library-ota.o [28]
    .rodata               const    0x0002d3b8     0x18  manufacturing-library-cli.o [27]
    .rodata               const    0x0002d3d0      0x8  manufacturing-library-cli.o [27]
    .rodata               const    0x0002d3d8     0x18  manufacturing-library-cli.o [27]
    .rodata               const    0x0002d3f0     0x14  manufacturing-library-cli.o [27]
    .rodata               const    0x0002d404     0x20  manufacturing-library-cli.o [27]
    .rodata               const    0x0002d424     0x14  manufacturing-library-cli.o [27]
    .rodata               const    0x0002d438     0x14  manufacturing-library-cli.o [27]
    .rodata               const    0x0002d44c     0x18  manufacturing-library-cli.o [27]
    .rodata               const    0x0002d464     0x14  manufacturing-library-cli.o [27]
    .rodata               const    0x0002d478     0x28  manufacturing-library-cli.o [27]
    .rodata               const    0x0002d4a0     0x28  manufacturing-library-cli.o [27]
    .rodata               const    0x0002d4c8     0x1c  manufacturing-library-cli.o [27]
    .rodata               const    0x0002d4e4     0x20  manufacturing-library-cli.o [27]
    .rodata               const    0x0002d504      0xc  manufacturing-library-cli.o [27]
    .rodata               const    0x0002d510      0xc  manufacturing-library-cli.o [27]
    .rodata               const    0x0002d51c     0x14  manufacturing-library-cli.o [27]
    .rodata               const    0x0002d530     0x10  manufacturing-library-cli.o [27]
    .rodata               const    0x0002d540     0x10  manufacturing-library-cli.o [27]
    .rodata               const    0x0002d550     0x10  manufacturing-library-cli.o [27]
    .rodata               const    0x0002d560     0x1c  manufacturing-library-cli.o [27]
    .rodata               const    0x0002d57c     0x1c  manufacturing-library-cli.o [27]
    .rodata               const    0x0002d598     0x20  manufacturing-library-cli.o [27]
    .rodata               const    0x0002d5b8     0x1c  manufacturing-library-cli.o [27]
    .rodata               const    0x0002d5d4     0x24  manufacturing-library-cli.o [27]
    .rodata               const    0x0002d5f8     0x40  manufacturing-library-cli.o [27]
    .rodata               const    0x0002d638     0x28  manufacturing-library-cli.o [27]
    .rodata               const    0x0002d660     0x1c  manufacturing-library-cli.o [27]
    .rodata               const    0x0002d67c     0x10  level-control.o [26]
    .rodata               const    0x0002d68c     0x14  level-control.o [26]
    .rodata               const    0x0002d6a0     0x10  led-temp-pwm.o [25]
    .rodata               const    0x0002d6b0     0x10  led-temp-pwm.o [25]
    .rodata               const    0x0002d6c0     0x18  led-temp-pwm.o [25]
    .rodata               const    0x0002d6d8      0x8  led-temp-pwm.o [25]
    .rodata               const    0x0002d6e0     0x14  hal-config.o [22]
    .rodata               const    0x0002d6f4     0x10  hal-config.o [22]
    .rodata               const    0x0002d704     0x14  hal-config.o [22]
    .rodata               const    0x0002d718     0x24  hal-config.o [22]
    .rodata               const    0x0002d73c     0x10  find-and-bind-target.o [20]
    .rodata               const    0x0002d74c     0x18  find-and-bind-target.o [20]
    .rodata               const    0x0002d764     0x10  find-and-bind-target.o [20]
    .rodata               const    0x0002d774     0x1c  bootloader-interface-app.o [19]
    .rodata               const    0x0002d790     0x38  bootloader-interface.o [19]
    .rodata               const    0x0002d7c8     0x1c  end-device-move.o [18]
    .rodata               const    0x0002d7e4     0x24  end-device-move.o [18]
    .rodata               const    0x0002d808     0x10  end-device-move.o [18]
    .rodata               const    0x0002d818     0x10  end-device-move.o [18]
    .rodata               const    0x0002d828     0x14  polling-soc.o [18]
    .rodata               const    0x0002d83c     0x28  em_cmu.o [17]
    .rodata               const    0x0002d864     0x48  em_rmu.o [17]
    .rodata               const    0x0002d8ac     0x10  dmadrv.o [16]
    .rodata               const    0x0002d8bc     0x10  dmadrv.o [16]
    .rodata               const    0x0002d8cc     0x10  dmadrv.o [16]
    .rodata               const    0x0002d8dc      0x4  dmadrv.o [16]
    .rodata               const    0x0002d8e0     0x18  uartdrv.o [16]
    .rodata               const    0x0002d8f8     0x10  uartdrv.o [16]
    .rodata               const    0x0002d908     0x10  ustimer.o [16]
    .rodata               const    0x0002d918     0x24  ember-printf.o [15]
    .rodata               const    0x0002d93c     0x14  assert-crash-handlers.o [14]
    .rodata               const    0x0002d950     0x10  button.o [14]
    .rodata               const    0x0002d960      0x8  com.o [14]
    .rodata               const    0x0002d968     0x24  cstartup-common.o [14]
    .rodata               const    0x0002d98c     0x40  diagnostic.o [14]
    .rodata               const    0x0002d9cc     0x38  diagnostic.o [14]
    .rodata               const    0x0002da04     0x44  diagnostic.o [14]
    .rodata               const    0x0002da48     0x3c  diagnostic.o [14]
    .rodata               const    0x0002da84     0x30  diagnostic.o [14]
    .rodata               const    0x0002dab4     0x30  diagnostic.o [14]
    .rodata               const    0x0002dae4     0x24  diagnostic.o [14]
    .rodata               const    0x0002db08     0x28  diagnostic.o [14]
    .rodata               const    0x0002db30     0x40  diagnostic.o [14]
    .rodata               const    0x0002db70     0x3c  diagnostic.o [14]
    .rodata               const    0x0002dbac     0x30  diagnostic.o [14]
    .rodata               const    0x0002dbdc     0x38  diagnostic.o [14]
    .rodata               const    0x0002dc14     0x3c  diagnostic.o [14]
    .rodata               const    0x0002dc50     0x30  diagnostic.o [14]
    .rodata               const    0x0002dc80     0x38  diagnostic.o [14]
    .rodata               const    0x0002dcb8     0x30  diagnostic.o [14]
    .rodata               const    0x0002dce8     0x40  diagnostic.o [14]
    .rodata               const    0x0002dd28      0xc  diagnostic.o [14]
    .rodata               const    0x0002dd34     0x10  diagnostic.o [14]
    .rodata               const    0x0002dd44      0xc  diagnostic.o [14]
    .rodata               const    0x0002dd50      0xc  diagnostic.o [14]
    .rodata               const    0x0002dd5c      0xc  diagnostic.o [14]
    .rodata               const    0x0002dd68      0xc  diagnostic.o [14]
    .rodata               const    0x0002dd74     0x10  diagnostic.o [14]
    .rodata               const    0x0002dd84     0x10  diagnostic.o [14]
    .rodata               const    0x0002dd94      0xc  diagnostic.o [14]
    .rodata               const    0x0002dda0      0xc  diagnostic.o [14]
    .rodata               const    0x0002ddac     0x10  diagnostic.o [14]
    .rodata               const    0x0002ddbc      0xc  diagnostic.o [14]
    .rodata               const    0x0002ddc8     0x10  diagnostic.o [14]
    .rodata               const    0x0002ddd8     0x10  diagnostic.o [14]
    .rodata               const    0x0002dde8      0xc  diagnostic.o [14]
    .rodata               const    0x0002ddf4      0xc  diagnostic.o [14]
    .rodata               const    0x0002de00      0xc  diagnostic.o [14]
    .rodata               const    0x0002de0c      0xc  diagnostic.o [14]
    .rodata               const    0x0002de18     0x10  diagnostic.o [14]
    .rodata               const    0x0002de28      0xc  diagnostic.o [14]
    .rodata               const    0x0002de34     0x10  diagnostic.o [14]
    .rodata               const    0x0002de44     0x10  diagnostic.o [14]
    .rodata               const    0x0002de54     0x10  diagnostic.o [14]
    .rodata               const    0x0002de64      0xc  diagnostic.o [14]
    .rodata               const    0x0002de70      0xc  diagnostic.o [14]
    .rodata               const    0x0002de7c      0xc  diagnostic.o [14]
    .rodata               const    0x0002de88     0x10  diagnostic.o [14]
    .rodata               const    0x0002de98     0x10  diagnostic.o [14]
    .rodata               const    0x0002dea8      0xc  diagnostic.o [14]
    .rodata               const    0x0002deb4     0x10  diagnostic.o [14]
    .rodata               const    0x0002dec4      0xc  diagnostic.o [14]
    .rodata               const    0x0002ded0      0xc  diagnostic.o [14]
    .rodata               const    0x0002dedc     0x10  diagnostic.o [14]
    .rodata               const    0x0002deec     0x10  diagnostic.o [14]
    .rodata               const    0x0002defc      0xc  diagnostic.o [14]
    .rodata               const    0x0002df08      0xc  diagnostic.o [14]
    .rodata               const    0x0002df14     0x10  diagnostic.o [14]
    .rodata               const    0x0002df24     0x10  diagnostic.o [14]
    .rodata               const    0x0002df34      0xc  diagnostic.o [14]
    .rodata               const    0x0002df40      0xc  diagnostic.o [14]
    .rodata               const    0x0002df4c     0x10  diagnostic.o [14]
    .rodata               const    0x0002df5c     0x10  diagnostic.o [14]
    .rodata               const    0x0002df6c      0xc  diagnostic.o [14]
    .rodata               const    0x0002df78     0x10  diagnostic.o [14]
    .rodata               const    0x0002df88     0x10  diagnostic.o [14]
    .rodata               const    0x0002df98      0xc  diagnostic.o [14]
    .rodata               const    0x0002dfa4      0xc  diagnostic.o [14]
    .rodata               const    0x0002dfb0     0x10  diagnostic.o [14]
    .rodata               const    0x0002dfc0     0x10  diagnostic.o [14]
    .rodata               const    0x0002dfd0      0xc  diagnostic.o [14]
    .rodata               const    0x0002dfdc      0x8  diagnostic.o [14]
    .rodata               const    0x0002dfe4      0x8  diagnostic.o [14]
    .rodata               const    0x0002dfec      0x8  diagnostic.o [14]
    .rodata               const    0x0002dff4      0x8  diagnostic.o [14]
    .rodata               const    0x0002dffc     0x30  diagnostic.o [14]
    .rodata               const    0x0002e02c     0x3c  diagnostic.o [14]
    .rodata               const    0x0002e068     0x2c  diagnostic.o [14]
    .rodata               const    0x0002e094     0x20  diagnostic.o [14]
    .rodata               const    0x0002e0b4     0x30  diagnostic.o [14]
    .rodata               const    0x0002e0e4     0x18  diagnostic.o [14]
    .rodata               const    0x0002e0fc     0x40  diagnostic.o [14]
    .rodata               const    0x0002e13c     0x30  diagnostic.o [14]
    .rodata               const    0x0002e16c     0x1c  diagnostic.o [14]
    .rodata               const    0x0002e188     0x1c  diagnostic.o [14]
    .rodata               const    0x0002e1a4     0x18  diagnostic.o [14]
    .rodata               const    0x0002e1bc     0x3c  diagnostic.o [14]
    .rodata               const    0x0002e1f8     0x34  diagnostic.o [14]
    .rodata               const    0x0002e22c     0x3c  diagnostic.o [14]
    .rodata               const    0x0002e268     0x28  diagnostic.o [14]
    .rodata               const    0x0002e290     0x1c  diagnostic.o [14]
    .rodata               const    0x0002e2ac      0x8  diagnostic.o [14]
    .rodata               const    0x0002e2b4     0x18  diagnostic.o [14]
    .rodata               const    0x0002e2cc     0x48  diagnostic.o [14]
    .rodata               const    0x0002e314     0x30  diagnostic.o [14]
    .rodata               const    0x0002e344     0x1c  diagnostic.o [14]
    .rodata               const    0x0002e360     0x24  diagnostic.o [14]
    .rodata               const    0x0002e384      0xc  diagnostic.o [14]
    .rodata               const    0x0002e390     0x68  diagnostic.o [14]
    .rodata               const    0x0002e3f8     0xc8  diagnostic.o [14]
    .rodata               const    0x0002e4c0     0xcc  diagnostic.o [14]
    .rodata               const    0x0002e58c     0x10  led.o [14]
    .rodata               const    0x0002e59c      0xc  mfg-token.o [14]
    .rodata               const    0x0002e5a8      0x8  mfg-token.o [14]
    .rodata               const    0x0002e5b0     0x10  micro-common.o [14]
    .rodata               const    0x0002e5c0      0x8  micro.o [14]
    .rodata               const    0x0002e5c8      0x8  micro.o [14]
    .rodata               const    0x0002e5d0     0x30  micro.o [14]
    .rodata               const    0x0002e600      0x4  micro.o [14]
    .rodata               const    0x0002e604     0x58  micro.o [14]
    .rodata               const    0x0002e65c     0x20  micro.o [14]
    .rodata               const    0x0002e67c      0xc  micro.o [14]
    .rodata               const    0x0002e688      0x8  micro.o [14]
    .rodata               const    0x0002e690      0xc  micro.o [14]
    .rodata               const    0x0002e69c     0x10  micro.o [14]
    .rodata               const    0x0002e6ac      0x8  micro.o [14]
    .rodata               const    0x0002e6b4      0xc  micro.o [14]
    .rodata               const    0x0002e6c0     0x10  micro.o [14]
    .rodata               const    0x0002e6d0     0x20  micro.o [14]
    .rodata               const    0x0002e6f0     0x34  micro.o [14]
    .rodata               const    0x0002e724     0x30  micro.o [14]
    .rodata               const    0x0002e754     0x10  sleep-efm32.o [14]
    .rodata               const    0x0002e764      0x8  token.o [14]
    .rodata               const    0x0002e76c     0x10  eeprom-cli.o [13]
    .rodata               const    0x0002e77c     0x24  eeprom-cli.o [13]
    .rodata               const    0x0002e7a0     0x20  eeprom-cli.o [13]
    .rodata               const    0x0002e7c0     0x24  eeprom-cli.o [13]
    .rodata               const    0x0002e7e4     0x20  eeprom-cli.o [13]
    .rodata               const    0x0002e804     0x20  eeprom-cli.o [13]
    .rodata               const    0x0002e824     0x20  eeprom-cli.o [13]
    .rodata               const    0x0002e844     0x20  eeprom-cli.o [13]
    .rodata               const    0x0002e864     0x20  eeprom-cli.o [13]
    .rodata               const    0x0002e884     0x24  eeprom-cli.o [13]
    .rodata               const    0x0002e8a8      0xc  eeprom-cli.o [13]
    .rodata               const    0x0002e8b4      0x8  eeprom-cli.o [13]
    .rodata               const    0x0002e8bc      0xc  eeprom.o [13]
    .rodata               const    0x0002e8c8     0x14  eeprom.o [13]
    .rodata               const    0x0002e8dc      0x8  eeprom.o [13]
    .rodata               const    0x0002e8e4     0x10  debug-jtag-efr32.o [12]
    .rodata               const    0x0002e8f4      0xc  SEGGER_RTT.o [11]
    .rodata               const    0x0002e900      0x8  SEGGER_RTT.o [11]
    .rodata               const    0x0002e908     0x18  configuration-server-cli.o [10]
    .rodata               const    0x0002e920     0x14  configuration-server-cli.o [10]
    .rodata               const    0x0002e934     0x14  configuration-server-cli.o [10]
    .rodata               const    0x0002e948     0x14  configuration-server-cli.o [10]
    .rodata               const    0x0002e95c     0x14  configuration-server-cli.o [10]
    .rodata               const    0x0002e970     0x1c  configuration-server-cli.o [10]
    .rodata               const    0x0002e98c      0xc  configuration-server-cli.o [10]
    .rodata               const    0x0002e998     0x18  configuration-server-cli.o [10]
    .rodata               const    0x0002e9b0     0x10  configuration-server-cli.o [10]
    .rodata               const    0x0002e9c0     0x18  configuration-server-cli.o [10]
    .rodata               const    0x0002e9d8     0x14  configuration-server-cli.o [10]
    .rodata               const    0x0002e9ec     0x18  configuration-server-cli.o [10]
    .rodata               const    0x0002ea04     0x14  configuration-server-cli.o [10]
    .rodata               const    0x0002ea18     0x14  configuration-server-cli.o [10]
    .rodata               const    0x0002ea2c     0x1c  configuration-server-cli.o [10]
    .rodata               const    0x0002ea48     0x14  configuration-server-cli.o [10]
    .rodata               const    0x0002ea5c      0x8  configuration-server.o [10]
    .rodata               const    0x0002ea64      0xc  configuration-server.o [10]
    .rodata               const    0x0002ea70     0x30  configuration-server.o [10]
    .rodata               const    0x0002eaa0     0x1c  configuration-server.o [10]
    .rodata               const    0x0002eabc     0x18  color-control-server.o [9]
    .rodata               const    0x0002ead4     0x24  color-control-server.o [9]
    .rodata               const    0x0002eaf8     0x18  color-control-server.o [9]
    .rodata               const    0x0002eb10     0x18  color-control-server.o [9]
    .rodata               const    0x0002eb28     0x14  color-control-server.o [9]
    .rodata               const    0x0002eb3c     0x14  bulb-ui.o [8]
    .rodata               const    0x0002eb50     0x18  bulb-ui.o [8]
    .rodata               const    0x0002eb68     0x18  bulb-ui.o [8]
    .rodata               const    0x0002eb80     0x20  bulb-ui.o [8]
    .rodata               const    0x0002eba0     0x18  bulb-ui.o [8]
    .rodata               const    0x0002ebb8      0x4  bulb-ui.o [8]
    .rodata               const    0x0002ebbc     0x14  bulb-ui.o [8]
    .rodata               const    0x0002ebd0     0x14  bulb-ui.o [8]
    .rodata               const    0x0002ebe4     0x14  bulb-ui.o [8]
    .rodata               const    0x0002ebf8     0x14  bulb-ui.o [8]
    .rodata               const    0x0002ec0c     0x1c  bulb-ui.o [8]
    .rodata               const    0x0002ec28     0x18  bulb-ui.o [8]
    .rodata               const    0x0002ec40     0x18  bulb-ui.o [8]
    .rodata               const    0x0002ec58     0x18  bulb-ui.o [8]
    .rodata               const    0x0002ec70     0x14  bulb-ui.o [8]
    .rodata               const    0x0002ec84     0x20  bulb-ui.o [8]
    .rodata               const    0x0002eca4     0x20  bulb-ui.o [8]
    .rodata               const    0x0002ecc4     0x1c  bulb-ui.o [8]
    .rodata               const    0x0002ece0     0x24  bulb-ui.o [8]
    .rodata               const    0x0002ed04     0x1c  bulb-ui.o [8]
    .rodata               const    0x0002ed20     0x14  bulb-ui.o [8]
    .rodata               const    0x0002ed34     0x14  bulb-ui.o [8]
    .rodata               const    0x0002ed48     0x2c  bulb-ui.o [8]
    .rodata               const    0x0002ed74     0x14  bulb-ui.o [8]
    .rodata               const    0x0002ed88     0x14  bulb-ui.o [8]
    .rodata               const    0x0002ed9c     0x10  bulb-ui.o [8]
    .rodata               const    0x0002edac     0x1c  bulb-ui.o [8]
    .rodata               const    0x0002edc8     0x10  bulb-ui.o [8]
    .rodata               const    0x0002edd8     0x24  bulb-ui.o [8]
    .rodata               const    0x0002edfc      0xc  bulb-ui.o [8]
    .rodata               const    0x0002ee08     0x24  bulb-ui.o [8]
    .rodata               const    0x0002ee2c      0xc  bulb-ui.o [8]
    .rodata               const    0x0002ee38     0x18  bulb-ui.o [8]
    .rodata               const    0x0002ee50     0x24  bulb-ui.o [8]
    .rodata               const    0x0002ee74     0x20  bulb-ui.o [8]
    .rodata               const    0x0002ee94     0x18  bulb-ui.o [8]
    .rodata               const    0x0002eeac     0x1c  bulb-ui.o [8]
    .rodata               const    0x0002eec8     0x10  bulb-ui.o [8]
    .rodata               const    0x0002eed8      0xc  adc-efr32.o [2]
    .rodata               const    0x0002eee4      0x8  adc-efr32.o [2]
    .rodata               const    0x0002eeec      0x8  adc-efr32.o [2]
    .rodata               const    0x0002eef4     0x10  af-event.o [1]
    .rodata               const    0x0002ef04     0x20  af-event.o [1]
    .rodata               const    0x0002ef24     0x24  af-event.o [1]
    .rodata               const    0x0002ef48     0x30  af-event.o [1]
    .rodata               const    0x0002ef78     0x20  af-event.o [1]
    .rodata               const    0x0002ef98     0x20  af-event.o [1]
    .rodata               const    0x0002efb8     0x28  af-event.o [1]
    .rodata               const    0x0002efe0     0x24  af-event.o [1]
    .rodata               const    0x0002f004     0x38  af-event.o [1]
    .rodata               const    0x0002f03c     0x34  af-event.o [1]
    .rodata               const    0x0002f070     0x34  af-event.o [1]
    .rodata               const    0x0002f0a4     0x2c  af-event.o [1]
    .rodata               const    0x0002f0d0     0x2c  af-event.o [1]
    .rodata               const    0x0002f0fc     0x28  af-event.o [1]
    .rodata               const    0x0002f124     0x34  af-event.o [1]
    .rodata               const    0x0002f158     0x18  af-event.o [1]
    .rodata               const    0x0002f170     0x28  af-event.o [1]
    .rodata               const    0x0002f198     0x28  af-event.o [1]
    .rodata               const    0x0002f1c0     0x98  af-event.o [1]
    .rodata               const    0x0002f258      0xc  af-main-common.o [1]
    .rodata               const    0x0002f264      0x8  af-main-common.o [1]
    .rodata               const    0x0002f26c      0x8  af-main-common.o [1]
    .rodata               const    0x0002f274      0x8  af-main-common.o [1]
    .rodata               const    0x0002f27c      0x8  af-main-common.o [1]
    .rodata               const    0x0002f284      0x8  af-main-common.o [1]
    .rodata               const    0x0002f28c      0x8  af-main-common.o [1]
    .rodata               const    0x0002f294      0x4  af-main-common.o [1]
    .rodata               const    0x0002f298      0x8  af-main-common.o [1]
    .rodata               const    0x0002f2a0      0x8  af-main-common.o [1]
    .rodata               const    0x0002f2a8     0x10  af-main-common.o [1]
    .rodata               const    0x0002f2b8      0x8  af-main-common.o [1]
    .rodata               const    0x0002f2c0      0x4  af-main-common.o [1]
    .rodata               const    0x0002f2c4     0x3c  af-main-common.o [1]
    .rodata               const    0x0002f300     0x18  af-main-common.o [1]
    .rodata               const    0x0002f318     0x30  af-main-common.o [1]
    .rodata               const    0x0002f348     0x14  af-main-common.o [1]
    .rodata               const    0x0002f35c      0x8  af-main-common.o [1]
    .rodata               const    0x0002f364      0x8  af-main-common.o [1]
    .rodata               const    0x0002f36c      0xc  af-main-common.o [1]
    .rodata               const    0x0002f378      0x8  af-main-common.o [1]
    .rodata               const    0x0002f380     0x10  af-main-common.o [1]
    .rodata               const    0x0002f390      0x8  af-main-common.o [1]
    .rodata               const    0x0002f398      0xc  af-main-common.o [1]
    .rodata               const    0x0002f3a4     0x20  af-main-common.o [1]
    .rodata               const    0x0002f3c4      0xc  af-main-common.o [1]
    .rodata               const    0x0002f3d0      0xc  af-main-common.o [1]
    .rodata               const    0x0002f3dc      0x8  af-main-common.o [1]
    .rodata               const    0x0002f3e4     0x30  af-main-common.o [1]
    .rodata               const    0x0002f414      0x4  af-main-common.o [1]
    .rodata               const    0x0002f418     0x1c  af-main-common.o [1]
    .rodata               const    0x0002f434      0x8  af-main-common.o [1]
    .rodata               const    0x0002f43c     0x18  af-main-common.o [1]
    .rodata               const    0x0002f454     0x10  af-main-common.o [1]
    .rodata               const    0x0002f464     0x10  af-main-common.o [1]
    .rodata               const    0x0002f474     0x48  af-main-common.o [1]
    .rodata               const    0x0002f4bc     0x18  af-main-soc.o [1]
    .rodata               const    0x0002f4d4     0x20  af-main-soc.o [1]
    .rodata               const    0x0002f4f4     0x14  af-main-soc.o [1]
    .rodata               const    0x0002f508      0x8  af-main-soc.o [1]
    .rodata               const    0x0002f510     0x10  af-main-soc.o [1]
    .rodata               const    0x0002f520     0x18  af-main-soc.o [1]
    .rodata               const    0x0002f538     0x18  af-main-soc.o [1]
    .rodata               const    0x0002f550     0x30  attribute-size.o [1]
    .rodata               const    0x0002f580     0x58  attribute-storage.o [1]
    .rodata               const    0x0002f5d8      0x8  attribute-storage.o [1]
    .rodata               const    0x0002f5e0      0x4  attribute-storage.o [1]
    .rodata               const    0x0002f5e4      0x4  attribute-storage.o [1]
    .rodata               const    0x0002f5e8      0x4  attribute-storage.o [1]
    .rodata               const    0x0002f5ec      0x4  attribute-storage.o [1]
    .rodata               const    0x0002f5f0      0x8  attribute-storage.o [1]
    .rodata               const    0x0002f5f8      0x4  attribute-storage.o [1]
    .rodata               const    0x0002f5fc      0x4  attribute-storage.o [1]
    .rodata               const    0x0002f600    0x2b8  attribute-storage.o [1]
    .rodata               const    0x0002f8b8     0xdc  attribute-storage.o [1]
    .rodata               const    0x0002f994      0x8  attribute-storage.o [1]
    .rodata               const    0x0002f99c      0x8  attribute-storage.o [1]
    .rodata               const    0x0002f9a4      0x4  attribute-storage.o [1]
    .rodata               const    0x0002f9a8     0x28  callback-stub.o [1]
    .rodata               const    0x0002f9d0     0x10  callback-stub.o [1]
    .rodata               const    0x0002f9e0      0x8  callback-stub.o [1]
    .rodata               const    0x0002f9e8     0x18  callback-stub.o [1]
    .rodata               const    0x0002fa00     0x24  callback-stub.o [1]
    .rodata               const    0x0002fa24      0x8  cli.o [1]
    .rodata               const    0x0002fa2c      0x8  cli.o [1]
    .rodata               const    0x0002fa34      0x8  cli.o [1]
    .rodata               const    0x0002fa3c      0x8  cli.o [1]
    .rodata               const    0x0002fa44      0x4  cli.o [1]
    .rodata               const    0x0002fa48      0x8  cli.o [1]
    .rodata               const    0x0002fa50      0x8  cli.o [1]
    .rodata               const    0x0002fa58      0x8  cli.o [1]
    .rodata               const    0x0002fa60      0x4  cli.o [1]
    .rodata               const    0x0002fa64      0x4  cli.o [1]
    .rodata               const    0x0002fa68      0x4  cli.o [1]
    .rodata               const    0x0002fa6c      0x8  cli.o [1]
    .rodata               const    0x0002fa74      0x8  cli.o [1]
    .rodata               const    0x0002fa7c      0x8  cli.o [1]
    .rodata               const    0x0002fa84      0x8  cli.o [1]
    .rodata               const    0x0002fa8c      0xc  cli.o [1]
    .rodata               const    0x0002fa98      0x8  cli.o [1]
    .rodata               const    0x0002faa0      0x4  cli.o [1]
    .rodata               const    0x0002faa4      0x8  cli.o [1]
    .rodata               const    0x0002faac      0x4  cli.o [1]
    .rodata               const    0x0002fab0      0xc  cli.o [1]
    .rodata               const    0x0002fabc      0x4  cli.o [1]
    .rodata               const    0x0002fac0      0xc  cli.o [1]
    .rodata               const    0x0002facc      0x8  cli.o [1]
    .rodata               const    0x0002fad4      0x4  cli.o [1]
    .rodata               const    0x0002fad8      0x8  cli.o [1]
    .rodata               const    0x0002fae0      0xc  cli.o [1]
    .rodata               const    0x0002faec      0x8  cli.o [1]
    .rodata               const    0x0002faf4      0x8  cli.o [1]
    .rodata               const    0x0002fafc      0x8  cli.o [1]
    .rodata               const    0x0002fb04      0x8  cli.o [1]
    .rodata               const    0x0002fb0c      0x4  cli.o [1]
    .rodata               const    0x0002fb10      0x4  cli.o [1]
    .rodata               const    0x0002fb14      0xc  cli.o [1]
    .rodata               const    0x0002fb20      0x4  cli.o [1]
    .rodata               const    0x0002fb24      0xc  cli.o [1]
    .rodata               const    0x0002fb30     0x10  cli.o [1]
    .rodata               const    0x0002fb40     0x10  cli.o [1]
    .rodata               const    0x0002fb50      0xc  cli.o [1]
    .rodata               const    0x0002fb5c      0x4  cli.o [1]
    .rodata               const    0x0002fb60     0x18  cli.o [1]
    .rodata               const    0x0002fb78      0x4  cli.o [1]
    .rodata               const    0x0002fb7c      0x8  cli.o [1]
    .rodata               const    0x0002fb84      0x8  cli.o [1]
    .rodata               const    0x0002fb8c      0x8  cli.o [1]
    .rodata               const    0x0002fb94      0x8  cli.o [1]
    .rodata               const    0x0002fb9c      0x8  cli.o [1]
    .rodata               const    0x0002fba4      0xc  cli.o [1]
    .rodata               const    0x0002fbb0     0x14  cli.o [1]
    .rodata               const    0x0002fbc4      0x8  cli.o [1]
    .rodata               const    0x0002fbcc      0x8  cli.o [1]
    .rodata               const    0x0002fbd4      0x8  cli.o [1]
    .rodata               const    0x0002fbdc      0x8  cli.o [1]
    .rodata               const    0x0002fbe4      0x8  cli.o [1]
    .rodata               const    0x0002fbec      0xc  cli.o [1]
    .rodata               const    0x0002fbf8      0x8  cli.o [1]
    .rodata               const    0x0002fc00      0x8  cli.o [1]
    .rodata               const    0x0002fc08      0xc  cli.o [1]
    .rodata               const    0x0002fc14      0x4  cli.o [1]
    .rodata               const    0x0002fc18      0x8  cli.o [1]
    .rodata               const    0x0002fc20      0xc  cli.o [1]
    .rodata               const    0x0002fc2c      0x8  cli.o [1]
    .rodata               const    0x0002fc34     0x10  cli.o [1]
    .rodata               const    0x0002fc44      0xc  cli.o [1]
    .rodata               const    0x0002fc50      0xc  cli.o [1]
    .rodata               const    0x0002fc5c      0x8  cli.o [1]
    .rodata               const    0x0002fc64     0x10  cli.o [1]
    .rodata               const    0x0002fc74      0xc  cli.o [1]
    .rodata               const    0x0002fc80      0x8  cli.o [1]
    .rodata               const    0x0002fc88      0x8  cli.o [1]
    .rodata               const    0x0002fc90      0x8  cli.o [1]
    .rodata               const    0x0002fc98     0x10  cli.o [1]
    .rodata               const    0x0002fca8      0x8  cli.o [1]
    .rodata               const    0x0002fcb0      0x8  cli.o [1]
    .rodata               const    0x0002fcb8      0x4  cli.o [1]
    .rodata               const    0x0002fcbc      0x8  cli.o [1]
    .rodata               const    0x0002fcc4      0x8  cli.o [1]
    .rodata               const    0x0002fccc      0xc  cli.o [1]
    .rodata               const    0x0002fcd8      0xc  cli.o [1]
    .rodata               const    0x0002fce4      0x8  cli.o [1]
    .rodata               const    0x0002fcec      0xc  cli.o [1]
    .rodata               const    0x0002fcf8      0xc  cli.o [1]
    .rodata               const    0x0002fd04      0xc  cli.o [1]
    .rodata               const    0x0002fd10      0x4  cli.o [1]
    .rodata               const    0x0002fd14      0x8  cli.o [1]
    .rodata               const    0x0002fd1c      0x8  cli.o [1]
    .rodata               const    0x0002fd24      0xc  cli.o [1]
    .rodata               const    0x0002fd30     0x10  cli.o [1]
    .rodata               const    0x0002fd40      0x8  cli.o [1]
    .rodata               const    0x0002fd48      0x8  cli.o [1]
    .rodata               const    0x0002fd50      0x4  cli.o [1]
    .rodata               const    0x0002fd54      0xc  cli.o [1]
    .rodata               const    0x0002fd60      0x8  cli.o [1]
    .rodata               const    0x0002fd68      0x8  cli.o [1]
    .rodata               const    0x0002fd70      0xc  cli.o [1]
    .rodata               const    0x0002fd7c      0x4  cli.o [1]
    .rodata               const    0x0002fd80      0xc  cli.o [1]
    .rodata               const    0x0002fd8c      0xc  cli.o [1]
    .rodata               const    0x0002fd98      0xc  cli.o [1]
    .rodata               const    0x0002fda4     0x10  cli.o [1]
    .rodata               const    0x0002fdb4      0xc  cli.o [1]
    .rodata               const    0x0002fdc0     0x18  cli.o [1]
    .rodata               const    0x0002fdd8      0x8  cli.o [1]
    .rodata               const    0x0002fde0     0x10  cli.o [1]
    .rodata               const    0x0002fdf0      0xc  cli.o [1]
    .rodata               const    0x0002fdfc     0x14  cli.o [1]
    .rodata               const    0x0002fe10      0x8  cli.o [1]
    .rodata               const    0x0002fe18      0x8  cli.o [1]
    .rodata               const    0x0002fe20      0x8  cli.o [1]
    .rodata               const    0x0002fe28      0xc  cli.o [1]
    .rodata               const    0x0002fe34     0x10  cli.o [1]
    .rodata               const    0x0002fe44      0x8  cli.o [1]
    .rodata               const    0x0002fe4c      0x4  cli.o [1]
    .rodata               const    0x0002fe50      0xc  cli.o [1]
    .rodata               const    0x0002fe5c      0x8  cli.o [1]
    .rodata               const    0x0002fe64      0xc  cli.o [1]
    .rodata               const    0x0002fe70     0x10  cli.o [1]
    .rodata               const    0x0002fe80      0xc  cli.o [1]
    .rodata               const    0x0002fe8c      0x8  cli.o [1]
    .rodata               const    0x0002fe94      0x8  cli.o [1]
    .rodata               const    0x0002fe9c      0x4  cli.o [1]
    .rodata               const    0x0002fea0      0x4  cli.o [1]
    .rodata               const    0x0002fea4      0x8  cli.o [1]
    .rodata               const    0x0002feac      0x8  cli.o [1]
    .rodata               const    0x0002feb4      0x8  cli.o [1]
    .rodata               const    0x0002febc      0x8  cli.o [1]
    .rodata               const    0x0002fec4     0x18  cli.o [1]
    .rodata               const    0x0002fedc      0x4  cli.o [1]
    .rodata               const    0x0002fee0      0x8  cli.o [1]
    .rodata               const    0x0002fee8      0x8  cli.o [1]
    .rodata               const    0x0002fef0      0x8  cli.o [1]
    .rodata               const    0x0002fef8      0x8  cli.o [1]
    .rodata               const    0x0002ff00      0x8  cli.o [1]
    .rodata               const    0x0002ff08      0x8  cli.o [1]
    .rodata               const    0x0002ff10      0x8  cli.o [1]
    .rodata               const    0x0002ff18      0xc  cli.o [1]
    .rodata               const    0x0002ff24      0x8  cli.o [1]
    .rodata               const    0x0002ff2c      0x8  cli.o [1]
    .rodata               const    0x0002ff34      0x8  cli.o [1]
    .rodata               const    0x0002ff3c      0x4  cli.o [1]
    .rodata               const    0x0002ff40      0x8  cli.o [1]
    .rodata               const    0x0002ff48     0x10  cli.o [1]
    .rodata               const    0x0002ff58      0xc  cli.o [1]
    .rodata               const    0x0002ff64      0x8  cli.o [1]
    .rodata               const    0x0002ff6c      0x8  cli.o [1]
    .rodata               const    0x0002ff74      0x4  cli.o [1]
    .rodata               const    0x0002ff78      0x4  cli.o [1]
    .rodata               const    0x0002ff7c     0x24  cli.o [1]
    .rodata               const    0x0002ffa0     0x24  cli.o [1]
    .rodata               const    0x0002ffc4     0x30  cli.o [1]
    .rodata               const    0x0002fff4     0x24  cli.o [1]
    .rodata               const    0x00030018     0xcc  cli.o [1]
    .rodata               const    0x000300e4     0x24  cli.o [1]
    .rodata               const    0x00030108     0x18  cli.o [1]
    .rodata               const    0x00030120     0x24  cli.o [1]
    .rodata               const    0x00030144     0x9c  cli.o [1]
    .rodata               const    0x000301e0     0x30  cli.o [1]
    .rodata               const    0x00030210     0x18  cli.o [1]
    .rodata               const    0x00030228     0x48  cli.o [1]
    .rodata               const    0x00030270     0x84  cli.o [1]
    .rodata               const    0x000302f4     0x18  cli.o [1]
    .rodata               const    0x0003030c     0x24  cli.o [1]
    .rodata               const    0x00030330     0x24  cli.o [1]
    .rodata               const    0x00030354     0x30  cli.o [1]
    .rodata               const    0x00030384     0xc0  cli.o [1]
    .rodata               const    0x00030444     0x30  cli.o [1]
    .rodata               const    0x00030474     0x78  cli.o [1]
    .rodata               const    0x000304ec     0x54  cli.o [1]
    .rodata               const    0x00030540     0x30  cli.o [1]
    .rodata               const    0x00030570     0x30  cli.o [1]
    .rodata               const    0x000305a0     0x3c  cli.o [1]
    .rodata               const    0x000305dc     0x24  cli.o [1]
    .rodata               const    0x00030600     0xa8  cli.o [1]
    .rodata               const    0x000306a8     0x30  cli.o [1]
    .rodata               const    0x000306d8     0xfc  cli.o [1]
    .rodata               const    0x000307d4     0x14  command-interpreter2.o [1]
    .rodata               const    0x000307e8     0x10  command-interpreter2.o [1]
    .rodata               const    0x000307f8     0x18  command-interpreter2.o [1]
    .rodata               const    0x00030810     0x14  command-interpreter2.o [1]
    .rodata               const    0x00030824     0x14  command-interpreter2.o [1]
    .rodata               const    0x00030838      0xc  command-interpreter2.o [1]
    .rodata               const    0x00030844     0x10  command-interpreter2.o [1]
    .rodata               const    0x00030854      0xc  command-interpreter2.o [1]
    .rodata               const    0x00030860      0xc  command-interpreter2.o [1]
    .rodata               const    0x0003086c      0xc  command-interpreter2.o [1]
    .rodata               const    0x00030878      0xc  command-interpreter2.o [1]
    .rodata               const    0x00030884      0xc  command-interpreter2.o [1]
    .rodata               const    0x00030890      0xc  command-interpreter2.o [1]
    .rodata               const    0x0003089c      0xc  command-interpreter2.o [1]
    .rodata               const    0x000308a8      0x8  command-interpreter2.o [1]
    .rodata               const    0x000308b0     0x40  command-interpreter2.o [1]
    .rodata               const    0x000308f0      0x8  command-interpreter2.o [1]
    .rodata               const    0x000308f8     0x10  core-cli.o [1]
    .rodata               const    0x00030908     0x10  core-cli.o [1]
    .rodata               const    0x00030918     0x1c  core-cli.o [1]
    .rodata               const    0x00030934      0x8  core-cli.o [1]
    .rodata               const    0x0003093c     0x18  core-cli.o [1]
    .rodata               const    0x00030954     0x20  core-cli.o [1]
    .rodata               const    0x00030974      0xc  core-cli.o [1]
    .rodata               const    0x00030980      0xc  core-cli.o [1]
    .rodata               const    0x0003098c      0x8  core-cli.o [1]
    .rodata               const    0x00030994      0x8  core-cli.o [1]
    .rodata               const    0x0003099c     0x10  core-cli.o [1]
    .rodata               const    0x000309ac      0xc  core-cli.o [1]
    .rodata               const    0x000309b8     0x14  core-cli.o [1]
    .rodata               const    0x000309cc      0xc  core-cli.o [1]
    .rodata               const    0x000309d8     0x20  core-cli.o [1]
    .rodata               const    0x000309f8      0x8  core-cli.o [1]
    .rodata               const    0x00030a00      0xc  core-cli.o [1]
    .rodata               const    0x00030a0c     0x34  core-cli.o [1]
    .rodata               const    0x00030a40     0x18  core-cli.o [1]
    .rodata               const    0x00030a58      0xc  core-cli.o [1]
    .rodata               const    0x00030a64      0xc  core-cli.o [1]
    .rodata               const    0x00030a70     0x10  core-cli.o [1]
    .rodata               const    0x00030a80      0xc  core-cli.o [1]
    .rodata               const    0x00030a8c      0xc  core-cli.o [1]
    .rodata               const    0x00030a98     0x14  core-cli.o [1]
    .rodata               const    0x00030aac     0x1c  core-cli.o [1]
    .rodata               const    0x00030ac8      0x8  core-cli.o [1]
    .rodata               const    0x00030ad0      0xc  core-cli.o [1]
    .rodata               const    0x00030adc      0x8  core-cli.o [1]
    .rodata               const    0x00030ae4      0x4  core-cli.o [1]
    .rodata               const    0x00030ae8     0x1c  ember-base-configuration.o [1]
    .rodata               const    0x00030b04      0x8  network-cli.o [1]
    .rodata               const    0x00030b0c      0x8  network-cli.o [1]
    .rodata               const    0x00030b14      0x8  network-cli.o [1]
    .rodata               const    0x00030b1c     0x18  network-cli.o [1]
    .rodata               const    0x00030b34     0x1c  network-cli.o [1]
    .rodata               const    0x00030b50     0x10  network-cli.o [1]
    .rodata               const    0x00030b60      0x8  network-cli.o [1]
    .rodata               const    0x00030b68     0x14  network-cli.o [1]
    .rodata               const    0x00030b7c     0x14  network-cli.o [1]
    .rodata               const    0x00030b90     0x20  network-cli.o [1]
    .rodata               const    0x00030bb0      0x4  network-cli.o [1]
    .rodata               const    0x00030bb4     0x1c  network-cli.o [1]
    .rodata               const    0x00030bd0     0x18  network-cli.o [1]
    .rodata               const    0x00030be8     0x1c  network-cli.o [1]
    .rodata               const    0x00030c04     0x10  network-cli.o [1]
    .rodata               const    0x00030c14     0x1c  option-cli.o [1]
    .rodata               const    0x00030c30      0xc  option-cli.o [1]
    .rodata               const    0x00030c3c     0x1c  option-cli.o [1]
    .rodata               const    0x00030c58     0x18  option-cli.o [1]
    .rodata               const    0x00030c70     0x14  option-cli.o [1]
    .rodata               const    0x00030c84      0x8  option-cli.o [1]
    .rodata               const    0x00030c8c      0x8  option-cli.o [1]
    .rodata               const    0x00030c94      0x8  option-cli.o [1]
    .rodata               const    0x00030c9c      0x8  option-cli.o [1]
    .rodata               const    0x00030ca4      0x8  option-cli.o [1]
    .rodata               const    0x00030cac     0x30  option-cli.o [1]
    .rodata               const    0x00030cdc      0x8  option-cli.o [1]
    .rodata               const    0x00030ce4     0x24  option-cli.o [1]
    .rodata               const    0x00030d08     0x20  option-cli.o [1]
    .rodata               const    0x00030d28     0x18  option-cli.o [1]
    .rodata               const    0x00030d40     0x14  option-cli.o [1]
    .rodata               const    0x00030d54     0x14  option-cli.o [1]
    .rodata               const    0x00030d68     0x18  print-formatter.o [1]
    .rodata               const    0x00030d80     0x2c  process-cluster-message.o [1]
    .rodata               const    0x00030dac      0x8  process-cluster-message.o [1]
    .rodata               const    0x00030db4      0xc  process-global-message.o [1]
    .rodata               const    0x00030dc0     0x24  serial.o [1]
    .rodata               const    0x00030de4     0x70  token-def.o [1]
    .rodata               const    0x00030e54     0x38  token-def.o [1]
    .rodata               const    0x00030e8c     0x38  token-def.o [1]
    .rodata               const    0x00030ec4     0x38  token-def.o [1]
    .rodata               const    0x00030efc      0x4  token-def.o [1]
    .rodata               const    0x00030f00     0x14  token-def.o [1]
    .rodata               const    0x00030f14      0x4  token-def.o [1]
    .rodata               const    0x00030f18      0x4  token-def.o [1]
    .rodata               const    0x00030f1c     0x14  token-def.o [1]
    .rodata               const    0x00030f30     0x10  token-def.o [1]
    .rodata               const    0x00030f40     0x1c  token-def.o [1]
    .rodata               const    0x00030f5c      0x8  token-def.o [1]
    .rodata               const    0x00030f64      0xc  token-def.o [1]
    .rodata               const    0x00030f70     0x14  token-def.o [1]
    .rodata               const    0x00030f84     0x10  token-def.o [1]
    .rodata               const    0x00030f94     0x14  token-def.o [1]
    .rodata               const    0x00030fa8     0x1c  token-def.o [1]
    .rodata               const    0x00030fc4      0x8  token-def.o [1]
    .rodata               const    0x00030fcc      0xc  token-def.o [1]
    .rodata               const    0x00030fd8      0x4  token-def.o [1]
    .rodata               const    0x00030fdc     0x10  token-def.o [1]
    .rodata               const    0x00030fec      0xc  token-def.o [1]
    .rodata               const    0x00030ff8     0x1c  token-def.o [1]
    .rodata               const    0x00031014     0x5c  token-def.o [1]
    .rodata               const    0x00031070     0x10  token-def.o [1]
    .rodata               const    0x00031080     0x28  token-def.o [1]
    .rodata               const    0x000310a8     0x14  token-def.o [1]
    .rodata               const    0x000310bc     0x2c  token-def.o [1]
    .rodata               const    0x000310e8     0x14  token-def.o [1]
    .rodata               const    0x000310fc     0x34  token-def.o [1]
    .rodata               const    0x00031130     0x20  token-def.o [1]
    .rodata               const    0x00031150      0x4  token-def.o [1]
    .rodata               const    0x00031154      0x4  token-def.o [1]
    .rodata               const    0x00031158     0x20  token-def.o [1]
    .rodata               const    0x00031178     0x20  token-def.o [1]
    .rodata               const    0x00031198     0x10  token-def.o [1]
    .rodata               const    0x000311a8     0x14  token-def.o [1]
    .rodata               const    0x000311bc     0x24  token-def.o [1]
    .rodata               const    0x000311e0     0xe0  token-def.o [1]
    .rodata               const    0x000312c0      0x8  util.o [1]
    .rodata               const    0x000312c8      0xc  util.o [1]
    .rodata               const    0x000312d4      0x8  util.o [1]
    .rodata               const    0x000312dc      0x8  util.o [1]
    .rodata               const    0x000312e4      0x8  util.o [1]
    .rodata               const    0x000312ec     0x10  util.o [1]
    .rodata               const    0x000312fc     0x1c  util.o [1]
    .rodata               const    0x00031318     0x10  util.o [1]
    .rodata               const    0x00031328      0xc  util.o [1]
    .rodata               const    0x00031334     0x18  util.o [1]
    .rodata               const    0x0003134c     0x10  util.o [1]
    .rodata               const    0x0003135c     0x18  util.o [1]
    .rodata               const    0x00031374      0x8  util.o [1]
    .rodata               const    0x0003137c      0x8  util.o [1]
    .rodata               const    0x00031384     0x20  util.o [1]
    .rodata               const    0x000313a4      0xc  util.o [1]
    .rodata               const    0x000313b0     0x20  util.o [1]
    .rodata               const    0x000313d0     0x1c  util.o [1]
    .rodata               const    0x000313ec      0x8  util.o [1]
    .rodata               const    0x000313f4     0x60  util.o [1]
    .rodata               const    0x00031454     0x20  util.o [1]
    .rodata               const    0x00031474     0x14  util.o [1]
    .rodata               const    0x00031488     0x24  zcl-cli.o [1]
    .rodata               const    0x000314ac      0xc  zcl-cli.o [1]
    .rodata               const    0x000314b8      0x8  zcl-cli.o [1]
    .rodata               const    0x000314c0     0x28  zcl-cli.o [1]
    .rodata               const    0x000314e8     0x10  zcl-cli.o [1]
    .rodata               const    0x000314f8     0x14  zcl-cli.o [1]
    .rodata               const    0x0003150c     0x14  zcl-cli.o [1]
    .rodata               const    0x00031520     0x24  zcl-cli.o [1]
    .rodata               const    0x00031544      0x8  zcl-cli.o [1]
    .rodata               const    0x0003154c      0xc  zcl-cli.o [1]
    .rodata               const    0x00031558     0x10  zcl-cli.o [1]
    .rodata               const    0x00031568      0x8  zcl-cli.o [1]
    .rodata               const    0x00031570      0x8  zcl-cli.o [1]
    .rodata               const    0x00031578     0x18  zcl-cli.o [1]
    .rodata               const    0x00031590     0x18  zdo-cli.o [1]
    .rodata               const    0x000315a8     0x18  zdo-cli.o [1]
    .rodata               const    0x000315c0     0x18  zdo-cli.o [1]
    .rodata               const    0x000315d8     0x40  zdo-cli.o [1]
    .rodata               const    0x00031618     0x30  zdo-cli.o [1]
    .rodata               const    0x00031648     0x10  zdo-cli.o [1]
    .rodata               const    0x00031658     0x18  zdo-cli.o [1]
    .rodata               const    0x00031670     0x14  zdo-cli.o [1]
    .rodata               const    0x00031684     0x1c  zdo-cli.o [1]
    .rodata               const    0x000316a0     0x20  zdo-cli.o [1]
    .rodata               const    0x000316c0     0x20  zdo-cli.o [1]
    .rodata               const    0x000316e0     0x14  zdo-cli.o [1]
    .rodata               const    0x000316f4     0x20  zdo-cli.o [1]
    .rodata               const    0x00031714     0x20  zdo-cli.o [1]
    .rodata               const    0x00031734     0x18  zdo-cli.o [1]
    .rodata               const    0x0003174c     0x1c  zdo-cli.o [1]
    .rodata               const    0x00031768     0x10  zdo-cli.o [1]
    .rodata               const    0x00031778      0xc  zdo-cli.o [1]
    .rodata               const    0x00031784     0x18  zdo-cli.o [1]
    .rodata               const    0x0003179c     0x14  zdo-cli.o [1]
    .rodata               const    0x000317b0      0x8  zdo-cli.o [1]
    .rodata               const    0x000317b8      0x8  zdo-cli.o [1]
    .rodata               const    0x000317c0     0x34  zdo-cli.o [1]
    .rodata               const    0x000317f4     0x14  zdo-cli.o [1]
    .rodata               const    0x00031808      0x1  binding-table.o [45]
    .rodata               const    0x0003180a      0x2  sim-eeprom2.o [41]
    .rodata               const    0x0003180c     0x1c  phy.o [71]
    .rodata               const    0x00031828      0x8  ember-version.o [71]
    .rodata               const    0x00031830      0xc  leaf-routing-stub.o [71]
    .rodata               const    0x0003183c      0x1  trust-center-util.o [67]
    .rodata               const    0x0003183e      0x2  sim-eeprom2.o [41]
    .rodata               const    0x00031840      0xc  rf4ce-stack-stubs.o [65]
    .rodata               const    0x0003184c      0xc  rail_ieee802154.o [60]
    .rodata               const    0x00031858     0x24  phy-config-MHz.o [71]
    .rodata               const    0x0003187c     0x58  radio_config_em3xxx_2.4GHz.o [71]
    .rodata               const    0x000318d4    0x2b4  ieee802154_efr32xg12_configurator_out.o [60]
    .rodata               const    0x00031b88      0x2  sim-eeprom2.o [41]
    .rodata               const    0x00031b8a      0x2  sim-eeprom2.o [41]
    .rodata               const    0x00031b8c      0x2  sim-eeprom2.o [41]
    .rodata               const    0x00031b8e      0x2  sim-eeprom2.o [41]
    .rodata               const    0x00031b90      0x2  sim-eeprom2.o [41]
    .rodata               const    0x00031b92      0x2  sim-eeprom2.o [41]
    .rodata               const    0x00031b94      0x2  sim-eeprom2.o [41]
    .rodata               const    0x00031b96      0x2  sim-eeprom2.o [41]
    .rodata               const    0x00031b98      0x2  button.o [14]
    .rodata               const    0x00031b9a      0x2  led.o [14]
    .rodata               const    0x00031b9c      0x2  mfg-token.o [14]
    .rodata               const    0x00031b9e      0x2  mfg-token.o [14]
    .rodata               const    0x00031ba0      0x2  mfg-token.o [14]
    .rodata               const    0x00031ba2      0x2  mfg-token.o [14]
    .rodata               const    0x00031ba4      0x2  mfg-token.o [14]
    .rodata               const    0x00031ba6      0x2  mfg-token.o [14]
    .rodata               const    0x00031ba8      0x2  mfg-token.o [14]
    .rodata               const    0x00031baa      0x2  mfg-token.o [14]
    .rodata               const    0x00031bac      0x2  mfg-token.o [14]
    .rodata               const    0x00031bae      0x2  mfg-token.o [14]
    .rodata               const    0x00031bb0      0x2  eeprom.o [13]
    .rodata               const    0x00031bb2      0x2  attribute-storage.o [1]
    .rodata               const    0x00031bb4      0x2  attribute-storage.o [1]
    .rodata               const    0x00031bb6      0x2  attribute-storage.o [1]
    .rodata               const    0x00031bb8      0x2  cli.o [1]
    .rodata               const    0x00031bba      0x2  cli.o [1]
    .rodata               const    0x00031bbc      0x2  cli.o [1]
    .rodata               const    0x00031bbe      0x2  cli.o [1]
    .rodata               const    0x00031bc0      0x2  token-def.o [1]
    .rodata               const    0x00031bc2      0x2  token-def.o [1]
    .rodata               const    0x00031bc4      0x2  token-def.o [1]
    .rodata               const    0x00031bc6      0x2  token-def.o [1]
    .rodata               const    0x00031bc8      0x2  token-def.o [1]
    .rodata               const    0x00031bca      0x2  token-def.o [1]
    .rodata               const    0x00031bcc      0x2  token-def.o [1]
    .rodata               const    0x00031bce      0x2  token-def.o [1]
    .rodata               const    0x00031bd0      0x2  token-def.o [1]
    .rodata               const    0x00031bd2      0x2  token-def.o [1]
    .rodata               const    0x00031bd4      0x1  sim-eeprom2.o [41]
    .rodata               const    0x00031bd5      0x1  diagnostic.o [14]
    .rodata               const    0x00031bd6      0x1  attribute-storage.o [1]
    .rodata               const    0x00031bd7      0x1  attribute-storage.o [1]
    .rodata               const    0x00031bd8      0x1  cli.o [1]
    .rodata               const    0x00031bd9      0x1  command-interpreter2.o [1]
    .rodata               const    0x00031bda      0x1  ember-configuration.o [1]
    .rodata               const    0x00031bdb      0x1  token-def.o [1]
    .rodata               const    0x00031bdc      0x1  token-def.o [1]
    .rodata               const    0x00031bdd      0x1  token-def.o [1]
    .rodata               const    0x00031bde      0x1  token-def.o [1]
    .rodata               const    0x00031bdf      0x1  token-def.o [1]
    .rodata               const    0x00031be0      0x1  token-def.o [1]
    .rodata               const    0x00031be1      0x1  token-def.o [1]
    .rodata               const    0x00031be2      0x1  token-def.o [1]
    .rodata               const    0x00031be3      0x1  token-def.o [1]
    .rodata               const    0x00031be4      0x1  token-def.o [1]
    .rodata               const    0x00031be5      0x1  token-def.o [1]
    .rodata               const    0x00031be6      0x1  token-def.o [1]
    .rodata               const    0x00031be7      0x1  ember-multi-network-stub.o [63]
    .rodata               const    0x00031be8      0x1  zll-stubs.o [72]
    .rodata               const    0x00031be9      0x1  ember-library.o [71]
    .rodata               const    0x00031bea      0x1  aps-keys-full-stub.o [68]
    .rodata               const    0x00031beb      0x1  cbke-crypto-engine-stub.o [51]
    .rodata               const    0x00031bec      0x1  install-code-tokens.o [59]
    .rodata               const    0x00031bed      0x1  cbke-crypto-engine-163k1-stub.o [46]
    .rodata               const    0x00031bee      0x1  cbke-crypto-engine-283k1-stub.o [47]
    .rodata               const    0x00031bef      0x1  end-device-bind-stub.o [55]
    .rodata               const    0x00031bf0      0x1  enhanced-beacon-request-stub.o [56]
    .rodata               const    0x00031bf1      0x1  packet-validate.o [64]
    .rodata               const    0x00031bf2      0x1  cbke-crypto-engine-dsa-sign-stub.o [48]
    .rodata               const    0x00031bf3      0x1  cbke-crypto-engine-dsa-verify-283k1-stub.o [49]
    .rodata               const    0x00031bf4      0x1  cbke-crypto-engine-dsa-verify-stub.o [50]
    .data_init                     0x00031bf8    0x4bc  <Block>
      Initializer bytes   const    0x00031bf8    0x4bc  <for .data-1>
                                 - 0x000320b4  0x31eb4

"NVM&SIMEE":                                    0x9000
  SIMEE                            0x000f7000   0x9000  <Block>
    SIMEE                 uninit   0x000f7000   0x9000  sim-eeprom2.o [41]
                                 - 0x00100000   0x9000

"Heap":                                          0xf50
  EMHEAP_overlay                   0x20000000    0xf50  <Overlay>
    part 1:
      EMHEAP              uninit   0x20000000    0xf50  ember-configuration.o [1]
    part 2:
      RESETINFO                    0x20000000     0x9c  <Block>
        RESETINFO         rw data  0x20000000      0x0  faults-v7m.o [14]
        RESETINFO         rw data  0x20000000      0x0  isr-stubs.o [14]
        RESETINFO         uninit   0x20000000     0x9c  cstartup-common.o [14]
                                 - 0x20000f50    0xf50

"Guard":                                          0x20
  GUARD_REGION            uninit   0x20000f60     0x20  cstartup-common.o [14]
                                 - 0x20000f80     0x20

"APP rw":                                       0x2b8d
  APPRW_block                      0x2003d3d0   0x2b8d  <Block>
    ALIGN_CSTACK                   0x2003d3d0    0x960  <Block>
      CSTACK                       0x2003d3d0    0x960  <Block>
        CSTACK            rw data  0x2003d3d0      0x0  faults-v7m.o [14]
        CSTACK            rw data  0x2003d3d0      0x0  isr-stubs.o [14]
        CSTACK            uninit   0x2003d3d0    0x960  cstartup-common.o [14]
    .textrw                        0x2003dd30    0x214  <Block>
      .textrw-1                    0x2003dd30    0x214  <Init block>
        .textrw           inited   0x2003dd30    0x214  em_msc.o [17]
    .data                          0x2003df44    0x4bc  <Block>
      .data-1                      0x2003df44    0x4ba  <Init block>
        .data             inited   0x2003df44      0x4  ota-storage-eeprom-page-erase.o [37]
        .data             inited   0x2003df48     0x24  network-steering.o [29]
        .data             inited   0x2003df6c      0x4  network-steering.o [29]
        .data             inited   0x2003df70      0x4  network-steering.o [29]
        .data             inited   0x2003df74     0x40  manufacturing-library-cli.o [27]
        .data             inited   0x2003dfb4      0x4  led-temp-pwm.o [25]
        .data             inited   0x2003dfb8      0x4  em_cmu.o [17]
        .data             inited   0x2003dfbc      0x4  system_efr32mg12p.o [17]
        .data             inited   0x2003dfc0      0x4  system_efr32mg12p.o [17]
        .data             inited   0x2003dfc4      0x4  system_efr32mg12p.o [17]
        .data             inited   0x2003dfc8      0xc  rtcdriver.o [16]
        .data             inited   0x2003dfd4      0x8  rtcdriver.o [16]
        .data             inited   0x2003dfdc     0x80  com.o [14]
        .data             inited   0x2003e05c     0x80  com.o [14]
        .data             inited   0x2003e0dc      0x4  micro.o [14]
        .data             inited   0x2003e0e0     0x50  mpu.o [14]
        .data             inited   0x2003e130      0x4  debug-jtag-efr32.o [12]
        .data             inited   0x2003e134     0x30  bulb-ui.o [8]
        .data             inited   0x2003e164     0x70  bulb-ui.o [8]
        .data             inited   0x2003e1d4     0x24  af-event.o [1]
        .data             inited   0x2003e1f8     0x48  af-event.o [1]
        .data             inited   0x2003e240     0x20  command-interpreter2.o [1]
        .data             inited   0x2003e260      0x4  ember-configuration.o [1]
        .data             inited   0x2003e264      0x4  ember-configuration.o [1]
        .data             inited   0x2003e268      0x4  ember-configuration.o [1]
        .data             inited   0x2003e26c      0x4  ember-configuration.o [1]
        .data             inited   0x2003e270      0x4  ember-configuration.o [1]
        .data             inited   0x2003e274      0x4  ember-configuration.o [1]
        .data             inited   0x2003e278      0x4  ember-configuration.o [1]
        .data             inited   0x2003e27c      0x4  ember-configuration.o [1]
        .data             inited   0x2003e280      0x4  ember-configuration.o [1]
        .data             inited   0x2003e284      0x4  ember-configuration.o [1]
        .data             inited   0x2003e288      0x4  ember-configuration.o [1]
        .data             inited   0x2003e28c      0x4  ember-configuration.o [1]
        .data             inited   0x2003e290      0x4  ember-configuration.o [1]
        .data             inited   0x2003e294      0x4  ember-configuration.o [1]
        .data             inited   0x2003e298      0x4  ember-configuration.o [1]
        .data             inited   0x2003e29c      0x4  ember-configuration.o [1]
        .data             inited   0x2003e2a0      0x4  ember-configuration.o [1]
        .data             inited   0x2003e2a4      0x4  ember-configuration.o [1]
        .data             inited   0x2003e2a8      0x4  ember-configuration.o [1]
        .data             inited   0x2003e2ac      0x4  ember-configuration.o [1]
        .data             inited   0x2003e2b0      0x4  ember-configuration.o [1]
        .data             inited   0x2003e2b4      0x8  zigbee-stack.o [71]
        .data             inited   0x2003e2bc     0x18  sim-eeprom2-internal.o [70]
        .data             inited   0x2003e2d4     0x1a  association.o [71]
        .data             inited   0x2003e2f0     0x3c  phy.o [71]
        .data             inited   0x2003e32c      0x4  micro-internal.o [58]
        .data             inited   0x2003e330      0x4  network.o [71]
        .data             inited   0x2003e334      0x4  debug.o [52]
        .data             inited   0x2003e338      0x8  mac-receive.o [71]
        .data             inited   0x2003e340      0x4  mac-arbiter.o [71]
        .data             inited   0x2003e344     0x10  pa.o [60]
        .data             inited   0x2003e354     0x18  rail_rf_hal.o [60]
        .data             inited   0x2003e36c     0x14  rail_rf_hal.o [60]
        .data             inited   0x2003e380      0x8  rail_rf_hal.o [60]
        .data             inited   0x2003e388     0x14  synth.o [60]
        .data             inited   0x2003e39c      0x4  radio_config_em3xxx_2.4GHz.o [71]
        .data             inited   0x2003e3a0      0x2  ota-client.o [32]
        .data             inited   0x2003e3a2      0x2  af-event.o [1]
        .data             inited   0x2003e3a4      0x2  ember-configuration.o [1]
        .data             inited   0x2003e3a6      0x2  ember-configuration.o [1]
        .data             inited   0x2003e3a8      0x2  ember-configuration.o [1]
        .data             inited   0x2003e3aa      0x2  option-cli.o [1]
        .data             inited   0x2003e3ac      0x2  random.o [1]
        .data             inited   0x2003e3ae      0x2  random.o [1]
        .data             inited   0x2003e3b0      0x2  aps-security.o [67]
        .data             inited   0x2003e3b2      0x2  leave.o [71]
        .data             inited   0x2003e3b4      0x8  zigbee-device.o [71]
        .data             inited   0x2003e3bc      0x2  application-support.o [71]
        .data             inited   0x2003e3be      0x2  management.o [71]
        .data             inited   0x2003e3c0      0x2  mac-header.o [71]
        .data             inited   0x2003e3c2      0x1  ota-common.o [34]
        .data             inited   0x2003e3c3      0x1  ota-client.o [32]
        .data             inited   0x2003e3c4      0x1  ota-client.o [32]
        .data             inited   0x2003e3c5      0x1  ota-client.o [32]
        .data             inited   0x2003e3c6      0x1  network-steering-soc.o [29]
        .data             inited   0x2003e3c7      0x1  eeprom.o [13]
        .data             inited   0x2003e3c8      0x1  bulb-ui.o [8]
        .data             inited   0x2003e3c9      0x1  af-main-common.o [1]
        .data             inited   0x2003e3ca      0x1  af-main-soc.o [1]
        .data             inited   0x2003e3cb      0x1  command-interpreter2.o [1]
        .data             inited   0x2003e3cc      0x1  ember-configuration.o [1]
        .data             inited   0x2003e3cd      0x1  ember-configuration.o [1]
        .data             inited   0x2003e3ce      0x1  ember-configuration.o [1]
        .data             inited   0x2003e3cf      0x1  ember-configuration.o [1]
        .data             inited   0x2003e3d0      0x1  ember-configuration.o [1]
        .data             inited   0x2003e3d1      0x1  ember-configuration.o [1]
        .data             inited   0x2003e3d2      0x1  ember-configuration.o [1]
        .data             inited   0x2003e3d3      0x1  ember-configuration.o [1]
        .data             inited   0x2003e3d4      0x1  ember-configuration.o [1]
        .data             inited   0x2003e3d5      0x1  ember-configuration.o [1]
        .data             inited   0x2003e3d6      0x1  ember-configuration.o [1]
        .data             inited   0x2003e3d7      0x1  ember-configuration.o [1]
        .data             inited   0x2003e3d8      0x1  ember-configuration.o [1]
        .data             inited   0x2003e3d9      0x1  ember-configuration.o [1]
        .data             inited   0x2003e3da      0x1  ember-configuration.o [1]
        .data             inited   0x2003e3db      0x1  ember-configuration.o [1]
        .data             inited   0x2003e3dc      0x1  ember-configuration.o [1]
        .data             inited   0x2003e3dd      0x1  ember-configuration.o [1]
        .data             inited   0x2003e3de      0x1  ember-configuration.o [1]
        .data             inited   0x2003e3df      0x1  ember-configuration.o [1]
        .data             inited   0x2003e3e0      0x1  ember-configuration.o [1]
        .data             inited   0x2003e3e1      0x1  ember-configuration.o [1]
        .data             inited   0x2003e3e2      0x1  print.o [1]
        .data             inited   0x2003e3e3      0x1  util.o [1]
        .data             inited   0x2003e3e4      0x1  util.o [1]
        .data             inited   0x2003e3e5      0x1  util.o [1]
        .data             inited   0x2003e3e6      0x1  zigbee-device-common.o [1]
        .data             inited   0x2003e3e7      0x1  aps-security.o [67]
        .data             inited   0x2003e3e8      0x1  zigbee-stack.o [71]
        .data             inited   0x2003e3e9      0x2  scan.o [71]
        .data             inited   0x2003e3eb      0x1  packet-buffer.o [71]
        .data             inited   0x2003e3ec      0x1  phy.o [71]
        .data             inited   0x2003e3ed      0x1  phy.o [71]
        .data             inited   0x2003e3ee      0x1  aps-retry.o [71]
        .data             inited   0x2003e3ef      0x1  network.o [71]
        .data             inited   0x2003e3f0      0x2  token-cache.o [71]
        .data             inited   0x2003e3f2      0x1  trust-center-util.o [67]
        .data             inited   0x2003e3f3      0x1  aps-keys-transient.o [67]
        .data             inited   0x2003e3f4      0x2  zdo-channel.o [71]
        .data             inited   0x2003e3f6      0x1  mac-phy.o [71]
        .data             inited   0x2003e3f7      0x1  mac-phy.o [71]
        .data             inited   0x2003e3f8      0x1  mac-arbiter.o [71]
        .data             inited   0x2003e3f9      0x1  child-handling.o [71]
        .data             inited   0x2003e3fa      0x1  child-handling.o [71]
        .data             inited   0x2003e3fb      0x1  jit.o [71]
        .data             inited   0x2003e3fc      0x1  random-id.o [71]
        .data             inited   0x2003e3fd      0x1  packet-validate.o [64]
    DLIB_PERTHREAD_INITIALIZED_DATA
                                   0x2003e400      0x0  <Block>
    DLIB_PERTHREAD_ZERO_DATA
                                   0x2003e400      0x0  <Block>
    .bss                           0x2003e400   0x1b5d  <Block>
      .bss                uninit   0x2003e400     0xa8  SEGGER_RTT.o [11]
      .bss                uninit   0x2003e4a8    0x120  reporting.o [38]
      .bss                uninit   0x2003e5c8     0xa0  rtcdriver.o [16]
      .bss                uninit   0x2003e668     0x18  protimer.o [60]
      .bss                uninit   0x2003e680     0xd4  sim-eeprom2.o [41]
      .bss                uninit   0x2003e754     0x38  sim-eeprom2.o [41]
      .bss                uninit   0x2003e78c     0xa0  scan-dispatch.o [39]
      .bss                uninit   0x2003e82c      0x8  reporting.o [38]
      .bss                uninit   0x2003e834      0x4  ota-storage-eeprom-page-erase.o [37]
      .bss                uninit   0x2003e838      0x4  ota-storage-eeprom-page-erase.o [37]
      .bss                uninit   0x2003e83c      0x8  ota-storage-eeprom.o [37]
      .bss                uninit   0x2003e844     0x10  ota-storage-simple.o [36]
      .bss                uninit   0x2003e854      0x4  ota-storage-simple.o [36]
      .bss                uninit   0x2003e858      0x4  ota-common.o [34]
      .bss                uninit   0x2003e85c      0x4  ota-common.o [34]
      .bss                uninit   0x2003e860      0x4  ota-client.o [32]
      .bss                uninit   0x2003e864     0x10  ota-client.o [32]
      .bss                uninit   0x2003e874      0x4  ota-client.o [32]
      .bss                uninit   0x2003e878      0x8  network-steering.o [29]
      .bss                uninit   0x2003e880     0x10  network-steering.o [29]
      .bss                uninit   0x2003e890     0x10  network-steering.o [29]
      .bss                uninit   0x2003e8a0      0x4  network-steering.o [29]
      .bss                uninit   0x2003e8a4      0x8  network-steering.o [29]
      .bss                uninit   0x2003e8ac      0x8  manufacturing-library-ota.o [28]
      .bss                uninit   0x2003e8b4      0x8  manufacturing-library-ota.o [28]
      .bss                uninit   0x2003e8bc     0x80  manufacturing-library-cli.o [27]
      .bss                uninit   0x2003e93c     0x14  level-control.o [26]
      .bss                uninit   0x2003e950      0x4  led-temp-pwm.o [25]
      .bss                uninit   0x2003e954      0x4  led-temp-pwm.o [25]
      .bss                uninit   0x2003e958      0x4  led-temp-pwm.o [25]
      .bss                uninit   0x2003e95c      0x4  identify.o [24]
      .bss                uninit   0x2003e960      0x4  coexistence-efr32.o [23]
      .bss                uninit   0x2003e964      0x4  coexistence-efr32.o [23]
      .bss                uninit   0x2003e968      0x4  coexistence-efr32.o [23]
      .bss                uninit   0x2003e96c      0x4  bootloader-interface-app.o [19]
      .bss                uninit   0x2003e970     0x18  bootloader-interface-app.o [19]
      .bss                uninit   0x2003e988    0x180  bootloader-interface-app.o [19]
      .bss                uninit   0x2003eb08      0x4  end-device-move.o [18]
      .bss                uninit   0x2003eb0c     0x18  end-device-support.o [18]
      .bss                uninit   0x2003eb24      0x8  polling-common.o [18]
      .bss                uninit   0x2003eb2c      0x4  em_emu.o [17]
      .bss                uninit   0x2003eb30      0x4  em_emu.o [17]
      .bss                uninit   0x2003eb34     0x80  dmadrv.o [16]
      .bss                uninit   0x2003ebb4    0x100  dmadrv.o [16]
      .bss                uninit   0x2003ecb4     0x40  gpiointerrupt.o [16]
      .bss                uninit   0x2003ecf4      0x4  rtcdriver.o [16]
      .bss                uninit   0x2003ecf8      0x4  rtcdriver.o [16]
      .bss                uninit   0x2003ecfc      0x4  rtcdriver.o [16]
      .bss                uninit   0x2003ed00      0x4  rtcdriver.o [16]
      .bss                uninit   0x2003ed04     0x28  tempdrv.o [16]
      .bss                uninit   0x2003ed2c     0x28  tempdrv.o [16]
      .bss                uninit   0x2003ed54      0x8  tempdrv.o [16]
      .bss                uninit   0x2003ed5c      0x4  tempdrv.o [16]
      .bss                uninit   0x2003ed60      0x4  tempdrv.o [16]
      .bss                uninit   0x2003ed64      0x4  tempdrv.o [16]
      .bss                uninit   0x2003ed68      0x4  tempdrv.o [16]
      .bss                uninit   0x2003ed6c     0x10  uartdrv.o [16]
      .bss                uninit   0x2003ed7c      0x4  ustimer.o [16]
      .bss                uninit   0x2003ed80      0x4  ustimer.o [16]
      .bss                uninit   0x2003ed84     0x88  com.o [14]
      .bss                uninit   0x2003ee0c     0x88  com.o [14]
      .bss                uninit   0x2003ee94     0x1c  com.o [14]
      .bss                uninit   0x2003eeb0     0x34  com.o [14]
      .bss                uninit   0x2003eee4      0x4  com.o [14]
      .bss                uninit   0x2003eee8      0x8  cstartup-common.o [14]
      .bss                uninit   0x2003eef0      0x4  micro.o [14]
      .bss                uninit   0x2003eef4      0x4  sleep-efm32.o [14]
      .bss                uninit   0x2003eef8      0x4  sleep-efm32.o [14]
      .bss                uninit   0x2003eefc     0x10  eeprom.o [13]
      .bss                uninit   0x2003ef0c     0x40  debug-jtag-efr32.o [12]
      .bss                uninit   0x2003ef4c     0x10  SEGGER_RTT.o [11]
      .bss                uninit   0x2003ef5c     0x10  SEGGER_RTT.o [11]
      .bss                uninit   0x2003ef6c      0x8  color-control-server.o [9]
      .bss                uninit   0x2003ef74      0x8  color-control-server.o [9]
      .bss                uninit   0x2003ef7c      0x8  color-control-server.o [9]
      .bss                uninit   0x2003ef84      0xc  color-control-server.o [9]
      .bss                uninit   0x2003ef90     0x10  color-control-server.o [9]
      .bss                uninit   0x2003efa0     0x10  color-control-server.o [9]
      .bss                uninit   0x2003efb0     0x10  color-control-server.o [9]
      .bss                uninit   0x2003efc0     0x10  color-control-server.o [9]
      .bss                uninit   0x2003efd0      0x8  bulb-ui.o [8]
      .bss                uninit   0x2003efd8      0x8  bulb-ui.o [8]
      .bss                uninit   0x2003efe0      0x8  bulb-pwm-driver-blink.o [7]
      .bss                uninit   0x2003efe8      0x8  bulb-pwm-driver-blink.o [7]
      .bss                uninit   0x2003eff0     0x88  bulb-pwm-driver-blink.o [7]
      .bss                uninit   0x2003f078     0x28  bulb-pwm-cli.o [6]
      .bss                uninit   0x2003f0a0     0x28  bulb-pwm-cli.o [6]
      .bss                uninit   0x2003f0c8     0x28  bulb-pwm-cli.o [6]
      .bss                uninit   0x2003f0f0      0xc  adc-efr32.o [2]
      .bss                uninit   0x2003f0fc      0x8  adc-efr32.o [2]
      .bss                uninit   0x2003f104      0x8  af-event.o [1]
      .bss                uninit   0x2003f10c      0x8  af-event.o [1]
      .bss                uninit   0x2003f114      0x8  af-event.o [1]
      .bss                uninit   0x2003f11c      0x8  af-event.o [1]
      .bss                uninit   0x2003f124      0x8  af-event.o [1]
      .bss                uninit   0x2003f12c     0x50  af-main-common.o [1]
      .bss                uninit   0x2003f17c     0x10  attribute-storage.o [1]
      .bss                uninit   0x2003f18c     0x60  attribute-storage.o [1]
      .bss                uninit   0x2003f1ec     0x4c  attribute-storage.o [1]
      .bss                uninit   0x2003f238      0x4  client-api.o [1]
      .bss                uninit   0x2003f23c      0x4  client-api.o [1]
      .bss                uninit   0x2003f240      0x4  client-api.o [1]
      .bss                uninit   0x2003f244     0x7c  command-interpreter2.o [1]
      .bss                uninit   0x2003f2c0      0x4  command-interpreter2.o [1]
      .bss                uninit   0x2003f2c4     0x30  ember-configuration.o [1]
      .bss                uninit   0x2003f2f4      0xc  message.o [1]
      .bss                uninit   0x2003f300     0x54  message.o [1]
      .bss                uninit   0x2003f354      0x4  multi-network.o [1]
      .bss                uninit   0x2003f358      0x4  multi-network.o [1]
      .bss                uninit   0x2003f35c      0x8  service-discovery-common.o [1]
      .bss                uninit   0x2003f364      0xc  service-discovery-common.o [1]
      .bss                uninit   0x2003f370     0x20  util.o [1]
      .bss                uninit   0x2003f390      0x4  util.o [1]
      .bss                uninit   0x2003f394     0x18  util.o [1]
      .bss                uninit   0x2003f3ac      0x8  util.o [1]
      .bss                uninit   0x2003f3b4     0x54  zcl-cli.o [1]
      .bss                uninit   0x2003f408      0xc  zcl-cli.o [1]
      .bss                uninit   0x2003f414      0xc  zdo-cli.o [1]
      .bss                uninit   0x2003f420      0xc  zdo-cli.o [1]
      .bss                uninit   0x2003f42c      0x8  aps-keys.o [67]
      .bss                uninit   0x2003f434     0x10  sim-eeprom2-internal.o [70]
      .bss                uninit   0x2003f444      0x8  ember-multi-network-stub.o [63]
      .bss                uninit   0x2003f44c      0x8  ember-multi-network-stub.o [63]
      .bss                uninit   0x2003f454      0x8  zll-stubs.o [72]
      .bss                uninit   0x2003f45c     0x24  scan.o [71]
      .bss                uninit   0x2003f480      0x8  system-timer.o [58]
      .bss                uninit   0x2003f488      0xc  association.o [71]
      .bss                uninit   0x2003f494      0xc  association.o [71]
      .bss                uninit   0x2003f4a0      0x8  association.o [71]
      .bss                uninit   0x2003f4a8      0xc  leave.o [71]
      .bss                uninit   0x2003f4b4     0x3c  phy.o [71]
      .bss                uninit   0x2003f4f0      0x4  phy.o [71]
      .bss                uninit   0x2003f4f4     0x94  phy.o [71]
      .bss                uninit   0x2003f588      0x8  pti.o [60]
      .bss                uninit   0x2003f590      0xe  aps-retry.o [71]
      .bss                uninit   0x2003f59e      0x2  ota-client.o [32]
      .bss                uninit   0x2003f5a0      0x4  network.o [71]
      .bss                uninit   0x2003f5a4      0x8  eui64.o [71]
      .bss                uninit   0x2003f5ac      0xc  zigbee-dispatch.o [71]
      .bss                uninit   0x2003f5b8     0x10  zigbee-device-util.o [71]
      .bss                uninit   0x2003f5c8      0x8  leaf-routing-stub.o [71]
      .bss                uninit   0x2003f5d0      0x4  aps-encryption.o [67]
      .bss                uninit   0x2003f5d4      0x8  neighbor.o [71]
      .bss                uninit   0x2003f5dc     0x10  aps-keys-transient.o [67]
      .bss                uninit   0x2003f5ec     0x64  broadcast.o [71]
      .bss                uninit   0x2003f650     0x10  zdo-channel.o [71]
      .bss                uninit   0x2003f660      0x8  mac-phy.o [71]
      .bss                uninit   0x2003f668      0x8  mac-receive.o [71]
      .bss                uninit   0x2003f670     0x10  mac-arbiter.o [71]
      .bss                uninit   0x2003f680      0xc  mac.o [71]
      .bss                uninit   0x2003f68c     0x80  mac.o [71]
      .bss                uninit   0x2003f70c      0xc  management.o [71]
      .bss                uninit   0x2003f718     0x18  child-handling.o [71]
      .bss                uninit   0x2003f730      0x8  duty-cycle-stub.o [71]
      .bss                uninit   0x2003f738     0x10  retry.o [71]
      .bss                uninit   0x2003f748      0xc  jit.o [71]
      .bss                uninit   0x2003f754    0x100  sim-eeprom2-internal-1to2upgrade.o [69]
      .bss                uninit   0x2003f854     0x10  sim-eeprom2-internal-1to2upgrade.o [69]
      .bss                uninit   0x2003f864      0x8  bufc.o [60]
      .bss                uninit   0x2003f86c    0x480  bufc.o [60]
      .bss                uninit   0x2003fcec     0x10  bufc.o [60]
      .bss                uninit   0x2003fcfc      0x8  rail_calibration.o [60]
      .bss                uninit   0x2003fd04      0x4  rail_rf_hal.o [60]
      .bss                uninit   0x2003fd08     0x10  rail_rf.o [60]
      .bss                uninit   0x2003fd18      0x8  symbol-timer.o [71]
      .bss                uninit   0x2003fd20     0x11  unicast-table.o [71]
      .bss                uninit   0x2003fd31      0x3  network.o [71]
      .bss                uninit   0x2003fd34      0xc  mac-header.o [71]
      .bss                uninit   0x2003fd40     0x40  radio.o [60]
      .bss                uninit   0x2003fd80      0x4  timings.o [60]
      .bss                uninit   0x2003fd84     0x14  timings.o [60]
      .bss                uninit   0x2003fd98     0x14  generic_phy.o [60]
      .bss                uninit   0x2003fdac      0x4  generic_phy.o [60]
      .bss                uninit   0x2003fdb0     0x15  ir_cal.o [60]
      .bss                uninit   0x2003fdc5      0x2  zigbee-stack.o [71]
      .bss                uninit   0x2003fdc7      0x1  update-tc-link-key.o [43]
      .bss                uninit   0x2003fdc8     0x10  protimer.o [60]
      .bss                uninit   0x2003fdd8      0x8  rfsense.o [60]
      .bss                uninit   0x2003fde0     0x50  rf_test.o [60]
      .bss                uninit   0x2003fe30      0x2  ota-client.o [32]
      .bss                uninit   0x2003fe32      0x2  manufacturing-library-ota.o [28]
      .bss                uninit   0x2003fe34      0x2  manufacturing-library-cli.o [27]
      .bss                uninit   0x2003fe36      0x2  manufacturing-library-cli.o [27]
      .bss                uninit   0x2003fe38     0x80  manufacturing-library-cli.o [27]
      .bss                uninit   0x2003feb8      0x2  led-temp-pwm.o [25]
      .bss                uninit   0x2003feba      0x2  led-temp-pwm.o [25]
      .bss                uninit   0x2003febc      0x2  em_emu.o [17]
      .bss                uninit   0x2003febe      0x2  em_emu.o [17]
      .bss                uninit   0x2003fec0      0x2  em_emu.o [17]
      .bss                uninit   0x2003fec2      0x2  button.o [14]
      .bss                uninit   0x2003fec4      0x2  cstartup-common.o [14]
      .bss                uninit   0x2003fec6      0x2  bulb-pwm-driver-efr32.o [7]
      .bss                uninit   0x2003fec8      0x2  client-api.o [1]
      .bss                uninit   0x2003feca      0x2  message.o [1]
      .bss                uninit   0x2003fecc      0x2  message.o [1]
      .bss                uninit   0x2003fece      0x2  message.o [1]
      .bss                uninit   0x2003fed0      0x2  print.o [1]
      .bss                uninit   0x2003fed2      0x2  zcl-cli.o [1]
      .bss                uninit   0x2003fed4      0x2  zcl-cli.o [1]
      .bss                uninit   0x2003fed6      0xa  mfglib.o [62]
      .bss                uninit   0x2003fee0      0x2  network.o [71]
      .bss                uninit   0x2003fee2      0x4  zigbee-device.o [71]
      .bss                uninit   0x2003fee6      0x2  jit.o [71]
      .bss                uninit   0x2003fee8      0x2  rail_rf_hal.o [60]
      .bss                uninit   0x2003feea      0x1  scenes.o [40]
      .bss                uninit   0x2003feeb      0x1  scan-dispatch.o [39]
      .bss                uninit   0x2003feec      0x1  scan-dispatch.o [39]
      .bss                uninit   0x2003feed      0x1  scan-dispatch.o [39]
      .bss                uninit   0x2003feee      0x1  scan-dispatch.o [39]
      .bss                uninit   0x2003feef      0x1  ota-storage-eeprom-page-erase.o [37]
      .bss                uninit   0x2003fef0      0x1  ota-storage-eeprom-page-erase.o [37]
      .bss                uninit   0x2003fef1      0x1  ota-storage-eeprom-page-erase.o [37]
      .bss                uninit   0x2003fef2      0x1  ota-storage-simple.o [36]
      .bss                uninit   0x2003fef3      0x1  ota-storage-simple.o [36]
      .bss                uninit   0x2003fef4      0x1  ota-common.o [34]
      .bss                uninit   0x2003fef5      0x1  ota-client.o [32]
      .bss                uninit   0x2003fef6      0x1  ota-client.o [32]
      .bss                uninit   0x2003fef7      0x1  ota-client.o [32]
      .bss                uninit   0x2003fef8      0x1  ota-client.o [32]
      .bss                uninit   0x2003fef9      0x1  ota-client.o [32]
      .bss                uninit   0x2003fefa      0x1  network-steering.o [29]
      .bss                uninit   0x2003fefb      0x1  network-steering.o [29]
      .bss                uninit   0x2003fefc      0x1  network-steering.o [29]
      .bss                uninit   0x2003fefd      0x1  network-steering.o [29]
      .bss                uninit   0x2003fefe      0x1  network-steering.o [29]
      .bss                uninit   0x2003feff      0x1  network-steering.o [29]
      .bss                uninit   0x2003ff00      0x1  network-steering.o [29]
      .bss                uninit   0x2003ff01      0x1  network-steering.o [29]
      .bss                uninit   0x2003ff02      0x1  network-steering.o [29]
      .bss                uninit   0x2003ff03      0x1  manufacturing-library-ota.o [28]
      .bss                uninit   0x2003ff04      0x1  manufacturing-library-ota.o [28]
      .bss                uninit   0x2003ff05      0x1  manufacturing-library-ota.o [28]
      .bss                uninit   0x2003ff06      0x1  manufacturing-library-ota.o [28]
      .bss                uninit   0x2003ff07      0x1  manufacturing-library-ota.o [28]
      .bss                uninit   0x2003ff08      0x1  manufacturing-library-ota.o [28]
      .bss                uninit   0x2003ff09      0x1  manufacturing-library-cli.o [27]
      .bss                uninit   0x2003ff0a      0x1  manufacturing-library-cli.o [27]
      .bss                uninit   0x2003ff0b      0x1  manufacturing-library-cli.o [27]
      .bss                uninit   0x2003ff0c      0x1  manufacturing-library-cli.o [27]
      .bss                uninit   0x2003ff0d      0x1  manufacturing-library-cli.o [27]
      .bss                uninit   0x2003ff0e      0x1  manufacturing-library-cli.o [27]
      .bss                uninit   0x2003ff0f      0x1  manufacturing-library-cli.o [27]
      .bss                uninit   0x2003ff10      0x1  led-temp-pwm.o [25]
      .bss                uninit   0x2003ff11      0x1  led-temp-pwm.o [25]
      .bss                uninit   0x2003ff12      0x1  coexistence-efr32.o [23]
      .bss                uninit   0x2003ff13      0x1  coexistence-efr32.o [23]
      .bss                uninit   0x2003ff14      0x1  coexistence-efr32.o [23]
      .bss                uninit   0x2003ff15      0x1  coexistence-efr32.o [23]
      .bss                uninit   0x2003ff16      0x1  end-device-support.o [18]
      .bss                uninit   0x2003ff17      0x1  em_emu.o [17]
      .bss                uninit   0x2003ff18      0x1  em_emu.o [17]
      .bss                uninit   0x2003ff19      0x1  dmadrv.o [16]
      .bss                uninit   0x2003ff1a      0x1  rtcdriver.o [16]
      .bss                uninit   0x2003ff1b      0x1  rtcdriver.o [16]
      .bss                uninit   0x2003ff1c      0x1  rtcdriver.o [16]
      .bss                uninit   0x2003ff1d      0x1  tempdrv.o [16]
      .bss                uninit   0x2003ff1e      0x1  uartdrv.o [16]
      .bss                uninit   0x2003ff1f      0x1  ustimer.o [16]
      .bss                uninit   0x2003ff20      0x1  token.o [14]
      .bss                uninit   0x2003ff21      0x1  token.o [14]
      .bss                uninit   0x2003ff22      0x1  eeprom.o [13]
      .bss                uninit   0x2003ff23      0x1  eeprom.o [13]
      .bss                uninit   0x2003ff24      0x1  debug-jtag-efr32.o [12]
      .bss                uninit   0x2003ff25      0x1  bulb-ui.o [8]
      .bss                uninit   0x2003ff26      0x1  bulb-ui.o [8]
      .bss                uninit   0x2003ff27      0x1  adc-efr32.o [2]
      .bss                uninit   0x2003ff28      0x1  adc-efr32.o [2]
      .bss                uninit   0x2003ff29      0x1  adc-efr32.o [2]
      .bss                uninit   0x2003ff2a      0x1  af-event.o [1]
      .bss                uninit   0x2003ff2b      0x1  af-trust-center.o [1]
      .bss                uninit   0x2003ff2c      0x1  af-trust-center.o [1]
      .bss                uninit   0x2003ff2d      0x1  attribute-storage.o [1]
      .bss                uninit   0x2003ff2e      0x1  command-interpreter2.o [1]
      .bss                uninit   0x2003ff2f      0x1  command-interpreter2.o [1]
      .bss                uninit   0x2003ff30      0x1  crypto-state.o [1]
      .bss                uninit   0x2003ff31      0x1  ember-base-configuration.o [1]
      .bss                uninit   0x2003ff32      0x1  ember-configuration.o [1]
      .bss                uninit   0x2003ff33      0x1  ember-configuration.o [1]
      .bss                uninit   0x2003ff34      0x1  ember-configuration.o [1]
      .bss                uninit   0x2003ff35      0x1  ember-configuration.o [1]
      .bss                uninit   0x2003ff36      0x1  ember-configuration.o [1]
      .bss                uninit   0x2003ff37      0x1  ember-configuration.o [1]
      .bss                uninit   0x2003ff38      0x1  network-cli.o [1]
      .bss                uninit   0x2003ff39      0x1  process-global-message.o [1]
      .bss                uninit   0x2003ff3a      0x1  security-address-cache.o [1]
      .bss                uninit   0x2003ff3b      0x1  security-address-cache.o [1]
      .bss                uninit   0x2003ff3c      0x1  security-address-cache.o [1]
      .bss                uninit   0x2003ff3d      0x1  util.o [1]
      .bss                uninit   0x2003ff3e      0x1  util.o [1]
      .bss                uninit   0x2003ff3f      0x1  util.o [1]
      .bss                uninit   0x2003ff40      0x1  util.o [1]
      .bss                uninit   0x2003ff41      0x1  zcl-cli.o [1]
      .bss                uninit   0x2003ff42      0x1  zcl-cli.o [1]
      .bss                uninit   0x2003ff43      0x1  zcl-cli.o [1]
      .bss                uninit   0x2003ff44      0x1  zdo-cli.o [1]
      .bss                uninit   0x2003ff45      0x1  zdo-cli.o [1]
      .bss                uninit   0x2003ff46      0x1  zigbee-device-common.o [1]
      .bss                uninit   0x2003ff47      0x2  event-control.o [71]
      .bss                uninit   0x2003ff49      0x1  phy.o [71]
      .bss                uninit   0x2003ff4a      0x1  phy.o [71]
      .bss                uninit   0x2003ff4b      0x1  zigbee-dispatch.o [71]
      .bss                uninit   0x2003ff4c      0x1  child-stub.o [71]
      .bss                uninit   0x2003ff4d      0x1  application-support.o [71]
      .bss                uninit   0x2003ff4e      0x1  application-support.o [71]
      .bss                uninit   0x2003ff4f      0x1  leaf-routing-stub.o [71]
      .bss                uninit   0x2003ff50      0x1  neighbor.o [71]
      .bss                uninit   0x2003ff51      0x1  aps-keys-transient.o [67]
      .bss                uninit   0x2003ff52      0x1  mac-phy.o [71]
      .bss                uninit   0x2003ff53      0x2  mac-arbiter.o [71]
      .bss                uninit   0x2003ff55      0x1  mac.o [71]
      .bss                uninit   0x2003ff56      0x1  duty-cycle-stub.o [71]
      .bss                uninit   0x2003ff57      0x1  command.o [71]
      .bss                uninit   0x2003ff58      0x1  random-id.o [71]
      .bss                uninit   0x2003ff59      0x1  random-id.o [71]
      .bss                uninit   0x2003ff5a      0x1  phy.o [60]
      .bss                uninit   0x2003ff5b      0x1  mac-header.o [71]
      .bss                uninit   0x2003ff5c      0x1  protimer.o [60]
                                 - 0x2003ff5d   0x2b8d

Absolute sections, part 1 of 2:                    0x4
  .noinit                 uninit   0x21001f14      0x4  generic_phy.o [60]
                                 - 0x21001f18      0x4

Absolute sections, part 2 of 2:                   0x94
  .noinit                 uninit   0x21001f6c     0x10  radio.o [60]
  .noinit                 uninit   0x21001f7c     0x18  radio.o [60]
  .noinit                 uninit   0x21001f94     0x30  radio.o [60]
  .noinit                 uninit   0x21001fc4     0x28  radio.o [60]
  .noinit                 uninit   0x21001fec      0x4  radio.o [60]
  .noinit                 uninit   0x21001ff0     0x10  radio.o [60]
                                 - 0x21002000     0x94



*******************************************************************************
*** MODULE SUMMARY
***

    Module                                      ro code  rw code  ro data  rw data  rw data
                                                                                     (abs)
    ------                                      -------  -------  -------  -------  -------
C:\SiliconLabs\SimplicityStudio\v4\developer\sdks\gecko_sdk_suite\v1.1\app\builder\Z3ColorTempLightSoc_3\IAR ARM - Default: [1]
    Z3ColorTempLightSoc_3_callbacks.o                28
    af-event.o                                      418               978      151
    af-main-common.o                              2 020               613       81
    af-main-soc.o                                 1 388               149        1
    af-security-common.o                              2
    af-trust-center.o                                68                          2
    afv2-bookkeeping.o                               76
    attribute-size.o                                 36                48
    attribute-storage.o                           2 484             1 072      189
    attribute-table.o                             1 254
    call-command-handler.o                        1 538
    callback-stub.o                                 292               124
    cli.o                                                           3 513
    client-api.o                                    508                         14
    command-interpreter2.o                        1 932               326      163
    core-cli.o                                      888               496
    crc.o                                            38
    crypto-state.o                                   16                          1
    ember-base-configuration.o                      144                28        1
    ember-configuration.o                            52               113      166
    mem-util.o                                      210
    message.o                                       392                        102
    multi-network.o                                 116                          8
    network-cli.o                                   524               272        1
    option-cli.o                                    592               342        2
    print-formatter.o                               300                24
    print.o                                         136                 1        3
    process-cluster-message.o                       100                52
    process-global-message.o                        984                12        1
    random.o                                         80                 4        4
    security-address-cache.o                         28                          3
    serial.o                                        178                36
    service-discovery-common.o                      948                         20
    service-discovery-soc.o                          86
    time-util.o                                       8
    token-def.o                                                     1 276
    util.o                                        2 190               459       75
    zcl-cli.o                                     2 116               264      103
    zdo-cli.o                                     1 326               632       26
    zigbee-device-common.o                          234                 1        2
    zigbee-device-library.o                         664
    ---------------------------------------------------------------------------------------
    Total:                                       24 394            10 835    1 119

C:\SiliconLabs\SimplicityStudio\v4\developer\sdks\gecko_sdk_suite\v1.1\app\builder\Z3ColorTempLightSoc_3\IAR ARM - Default\adc\EFR32: [2]
    adc-efr32.o                                     328                28       23
    ---------------------------------------------------------------------------------------
    Total:                                          328                28       23

C:\SiliconLabs\SimplicityStudio\v4\developer\sdks\gecko_sdk_suite\v1.1\app\builder\Z3ColorTempLightSoc_3\IAR ARM - Default\address-table: [3]
    ---------------------------------------------------------------------------------------
    Total:

C:\SiliconLabs\SimplicityStudio\v4\developer\sdks\gecko_sdk_suite\v1.1\app\builder\Z3ColorTempLightSoc_3\IAR ARM - Default\antenna-stub: [4]
    antenna-stub.o                                    4
    ---------------------------------------------------------------------------------------
    Total:                                            4

C:\SiliconLabs\SimplicityStudio\v4\developer\sdks\gecko_sdk_suite\v1.1\app\builder\Z3ColorTempLightSoc_3\IAR ARM - Default\basic: [5]
    basic.o                                          44
    ---------------------------------------------------------------------------------------
    Total:                                           44

C:\SiliconLabs\SimplicityStudio\v4\developer\sdks\gecko_sdk_suite\v1.1\app\builder\Z3ColorTempLightSoc_3\IAR ARM - Default\bulb-pwm-cli: [6]
    bulb-pwm-cli.o                                  268                        120
    ---------------------------------------------------------------------------------------
    Total:                                          268                        120

C:\SiliconLabs\SimplicityStudio\v4\developer\sdks\gecko_sdk_suite\v1.1\app\builder\Z3ColorTempLightSoc_3\IAR ARM - Default\bulb-pwm-driver\EFR32: [7]
    bulb-pwm-driver-blink.o                         520                        152
    bulb-pwm-driver-efr32.o                          92                          2
    ---------------------------------------------------------------------------------------
    Total:                                          612                        154

C:\SiliconLabs\SimplicityStudio\v4\developer\sdks\gecko_sdk_suite\v1.1\app\builder\Z3ColorTempLightSoc_3\IAR ARM - Default\bulb-ui: [8]
    bulb-ui.o                                     1 392             1 085      179
    ---------------------------------------------------------------------------------------
    Total:                                        1 392             1 085      179

C:\SiliconLabs\SimplicityStudio\v4\developer\sdks\gecko_sdk_suite\v1.1\app\builder\Z3ColorTempLightSoc_3\IAR ARM - Default\color-control-server: [9]
    color-control-server.o                        1 592               128      100
    ---------------------------------------------------------------------------------------
    Total:                                        1 592               128      100

C:\SiliconLabs\SimplicityStudio\v4\developer\sdks\gecko_sdk_suite\v1.1\app\builder\Z3ColorTempLightSoc_3\IAR ARM - Default\configuration-server: [10]
    configuration-server-cli.o                      612               340
    configuration-server.o                          924                96
    ---------------------------------------------------------------------------------------
    Total:                                        1 536               436

C:\SiliconLabs\SimplicityStudio\v4\developer\sdks\gecko_sdk_suite\v1.1\app\builder\Z3ColorTempLightSoc_3\IAR ARM - Default\debug-basic-library\EFR32: [11]
    SEGGER_RTT.o                                    452                20      200
    ---------------------------------------------------------------------------------------
    Total:                                          452                20      200

C:\SiliconLabs\SimplicityStudio\v4\developer\sdks\gecko_sdk_suite\v1.1\app\builder\Z3ColorTempLightSoc_3\IAR ARM - Default\debug-jtag\EFR32: [12]
    debug-jtag-efr32.o                              644                20       69
    ---------------------------------------------------------------------------------------
    Total:                                          644                20       69

C:\SiliconLabs\SimplicityStudio\v4\developer\sdks\gecko_sdk_suite\v1.1\app\builder\Z3ColorTempLightSoc_3\IAR ARM - Default\eeprom: [13]
    eeprom-afv2.o                                     8
    eeprom-cli.o                                    182               336
    eeprom.o                                        686                43       19
    ---------------------------------------------------------------------------------------
    Total:                                          876               379       19

C:\SiliconLabs\SimplicityStudio\v4\developer\sdks\gecko_sdk_suite\v1.1\app\builder\Z3ColorTempLightSoc_3\IAR ARM - Default\efr32: [14]
    assert-crash-handlers.o                         528                20
    button.o                                        402                18        2
    com.o                                         2 518               264      612
    cstartup-common.o                               192               476    2 442
    diagnostic.o                                    932             3 073
    faults-v7m.o                                    126
    isr-stubs.o                                       4
    led.o                                           184                18
    mfg-token.o                                     364                40
    micro-common.o                                  200                16
    micro.o                                         356               408        8
    mpu.o                                           164                80       80
    sleep-efm32.o                                   338                16        8
    token.o                                         224                 8        2
    ---------------------------------------------------------------------------------------
    Total:                                        6 532             4 437    3 154

C:\SiliconLabs\SimplicityStudio\v4\developer\sdks\gecko_sdk_suite\v1.1\app\builder\Z3ColorTempLightSoc_3\IAR ARM - Default\ember-minimal-printf: [15]
    ember-printf.o                                  674                36
    ---------------------------------------------------------------------------------------
    Total:                                          674                36

C:\SiliconLabs\SimplicityStudio\v4\developer\sdks\gecko_sdk_suite\v1.1\app\builder\Z3ColorTempLightSoc_3\IAR ARM - Default\emdrv: [16]
    dmadrv.o                                      1 104                52      385
    gpiointerrupt.o                                 212                         64
    rtcdriver.o                                   1 888                20      199
    tempdrv.o                                       628                        105
    uartdrv.o                                     7 368                40       17
    ustimer.o                                       692                16        9
    ---------------------------------------------------------------------------------------
    Total:                                       11 892               128      779

C:\SiliconLabs\SimplicityStudio\v4\developer\sdks\gecko_sdk_suite\v1.1\app\builder\Z3ColorTempLightSoc_3\IAR ARM - Default\emlib: [17]
    em_adc.o                                        440
    em_cmu.o                                      3 064                44        4
    em_core.o                                       222
    em_emu.o                                      2 328                         16
    em_gpio.o                                       396
    em_ldma.o                                       568
    em_leuart.o                                     260
    em_mpu.o                                        100
    em_msc.o                                         64      532      532
    em_rmu.o                                        152                72
    em_rtcc.o                                       112
    em_system.o                                      72
    em_timer.o                                      300
    em_usart.o                                      328
    em_wdog.o                                        24
    system_efr32mg12p.o                             172                12       12
    ---------------------------------------------------------------------------------------
    Total:                                        8 602      532      660       32

C:\SiliconLabs\SimplicityStudio\v4\developer\sdks\gecko_sdk_suite\v1.1\app\builder\Z3ColorTempLightSoc_3\IAR ARM - Default\end-device-support: [18]
    end-device-move.o                               324                96        4
    end-device-support.o                            360                         25
    polling-common.o                                112                          8
    polling-soc.o                                   142                20
    ---------------------------------------------------------------------------------------
    Total:                                          938               116       37

C:\SiliconLabs\SimplicityStudio\v4\developer\sdks\gecko_sdk_suite\v1.1\app\builder\Z3ColorTempLightSoc_3\IAR ARM - Default\external-generated-files: [19]
    bootloader-interface-app.o                      594                28      412
    bootloader-interface.o                           94                56
    ---------------------------------------------------------------------------------------
    Total:                                          688                84      412

C:\SiliconLabs\SimplicityStudio\v4\developer\sdks\gecko_sdk_suite\v1.1\app\builder\Z3ColorTempLightSoc_3\IAR ARM - Default\find-and-bind-target: [20]
    find-and-bind-target.o                           72                56
    ---------------------------------------------------------------------------------------
    Total:                                           72                56

C:\SiliconLabs\SimplicityStudio\v4\developer\sdks\gecko_sdk_suite\v1.1\app\builder\Z3ColorTempLightSoc_3\IAR ARM - Default\groups-server: [21]
    groups-server.o                               1 056
    ---------------------------------------------------------------------------------------
    Total:                                        1 056

C:\SiliconLabs\SimplicityStudio\v4\developer\sdks\gecko_sdk_suite\v1.1\app\builder\Z3ColorTempLightSoc_3\IAR ARM - Default\hal-config\EFR32: [22]
    hal-config-gpio.o                                 4
    hal-config.o                                    236                92
    ---------------------------------------------------------------------------------------
    Total:                                          240                92

C:\SiliconLabs\SimplicityStudio\v4\developer\sdks\gecko_sdk_suite\v1.1\app\builder\Z3ColorTempLightSoc_3\IAR ARM - Default\hal-library\EFR32: [23]
    coexistence-efr32.o                             424                         16
    ---------------------------------------------------------------------------------------
    Total:                                          424                         16

C:\SiliconLabs\SimplicityStudio\v4\developer\sdks\gecko_sdk_suite\v1.1\app\builder\Z3ColorTempLightSoc_3\IAR ARM - Default\identify: [24]
    identify.o                                      302                          4
    ---------------------------------------------------------------------------------------
    Total:                                          302                          4

C:\SiliconLabs\SimplicityStudio\v4\developer\sdks\gecko_sdk_suite\v1.1\app\builder\Z3ColorTempLightSoc_3\IAR ARM - Default\led-temp-pwm: [25]
    led-temp-pwm.o                                1 356                68       22
    ---------------------------------------------------------------------------------------
    Total:                                        1 356                68       22

C:\SiliconLabs\SimplicityStudio\v4\developer\sdks\gecko_sdk_suite\v1.1\app\builder\Z3ColorTempLightSoc_3\IAR ARM - Default\level-control: [26]
    level-control.o                               1 360                36       20
    ---------------------------------------------------------------------------------------
    Total:                                        1 360                36       20

C:\SiliconLabs\SimplicityStudio\v4\developer\sdks\gecko_sdk_suite\v1.1\app\builder\Z3ColorTempLightSoc_3\IAR ARM - Default\manufacturing-library-cli: [27]
    manufacturing-library-cli.o                   1 192               772      331
    ---------------------------------------------------------------------------------------
    Total:                                        1 192               772      331

C:\SiliconLabs\SimplicityStudio\v4\developer\sdks\gecko_sdk_suite\v1.1\app\builder\Z3ColorTempLightSoc_3\IAR ARM - Default\manufacturing-library-ota: [28]
    manufacturing-library-ota.o                     556                72       24
    ---------------------------------------------------------------------------------------
    Total:                                          556                72       24

C:\SiliconLabs\SimplicityStudio\v4\developer\sdks\gecko_sdk_suite\v1.1\app\builder\Z3ColorTempLightSoc_3\IAR ARM - Default\network-steering: [29]
    network-steering-soc.o                          120                45        1
    network-steering.o                            1 796             1 420      105
    ---------------------------------------------------------------------------------------
    Total:                                        1 916             1 465      106

C:\SiliconLabs\SimplicityStudio\v4\developer\sdks\gecko_sdk_suite\v1.1\app\builder\Z3ColorTempLightSoc_3\IAR ARM - Default\on-off: [30]
    on-off.o                                        258                20
    ---------------------------------------------------------------------------------------
    Total:                                          258                20

C:\SiliconLabs\SimplicityStudio\v4\developer\sdks\gecko_sdk_suite\v1.1\app\builder\Z3ColorTempLightSoc_3\IAR ARM - Default\ota-bootload: [31]
    ota-bootload-cli.o                               44
    ota-bootload-soc.o                               24                20
    ---------------------------------------------------------------------------------------
    Total:                                           68                20

C:\SiliconLabs\SimplicityStudio\v4\developer\sdks\gecko_sdk_suite\v1.1\app\builder\Z3ColorTempLightSoc_3\IAR ARM - Default\ota-client: [32]
    ota-client-cli.o                                164                48
    ota-client-page-request.o                        32
    ota-client-signature-verify.o                     4
    ota-client.o                                  3 762                41       38
    ---------------------------------------------------------------------------------------
    Total:                                        3 962                89       38

C:\SiliconLabs\SimplicityStudio\v4\developer\sdks\gecko_sdk_suite\v1.1\app\builder\Z3ColorTempLightSoc_3\IAR ARM - Default\ota-client-policy: [33]
    ota-client-policy.o                             174
    ---------------------------------------------------------------------------------------
    Total:                                          174

C:\SiliconLabs\SimplicityStudio\v4\developer\sdks\gecko_sdk_suite\v1.1\app\builder\Z3ColorTempLightSoc_3\IAR ARM - Default\ota-common: [34]
    ota-common.o                                    246                33       10
    ---------------------------------------------------------------------------------------
    Total:                                          246                33       10

C:\SiliconLabs\SimplicityStudio\v4\developer\sdks\gecko_sdk_suite\v1.1\app\builder\Z3ColorTempLightSoc_3\IAR ARM - Default\ota-storage-common: [35]
    ota-storage-common-cli.o                        320
    ota-storage-common.o                            392                16
    ---------------------------------------------------------------------------------------
    Total:                                          712                16

C:\SiliconLabs\SimplicityStudio\v4\developer\sdks\gecko_sdk_suite\v1.1\app\builder\Z3ColorTempLightSoc_3\IAR ARM - Default\ota-storage-simple: [36]
    ota-storage-simple.o                            834                 4       22
    ---------------------------------------------------------------------------------------
    Total:                                          834                 4       22

C:\SiliconLabs\SimplicityStudio\v4\developer\sdks\gecko_sdk_suite\v1.1\app\builder\Z3ColorTempLightSoc_3\IAR ARM - Default\ota-storage-simple-eeprom: [37]
    ota-storage-eeprom-page-erase.o                 760                36       15
    ota-storage-eeprom.o                            544                48        8
    ---------------------------------------------------------------------------------------
    Total:                                        1 304                84       23

C:\SiliconLabs\SimplicityStudio\v4\developer\sdks\gecko_sdk_suite\v1.1\app\builder\Z3ColorTempLightSoc_3\IAR ARM - Default\reporting: [38]
    reporting.o                                   2 480                        296
    ---------------------------------------------------------------------------------------
    Total:                                        2 480                        296

C:\SiliconLabs\SimplicityStudio\v4\developer\sdks\gecko_sdk_suite\v1.1\app\builder\Z3ColorTempLightSoc_3\IAR ARM - Default\scan-dispatch: [39]
    scan-dispatch.o                                 392                        164
    ---------------------------------------------------------------------------------------
    Total:                                          392                        164

C:\SiliconLabs\SimplicityStudio\v4\developer\sdks\gecko_sdk_suite\v1.1\app\builder\Z3ColorTempLightSoc_3\IAR ARM - Default\scenes: [40]
    scenes.o                                      3 196               208        1
    ---------------------------------------------------------------------------------------
    Total:                                        3 196               208        1

C:\SiliconLabs\SimplicityStudio\v4\developer\sdks\gecko_sdk_suite\v1.1\app\builder\Z3ColorTempLightSoc_3\IAR ARM - Default\sim-eeprom2\EFR32: [41]
    sim-eeprom2.o                                   148               157   37 132
    ---------------------------------------------------------------------------------------
    Total:                                          148               157   37 132

C:\SiliconLabs\SimplicityStudio\v4\developer\sdks\gecko_sdk_suite\v1.1\app\builder\Z3ColorTempLightSoc_3\IAR ARM - Default\simple-main: [42]
    simple-main.o                                    18
    ---------------------------------------------------------------------------------------
    Total:                                           18

C:\SiliconLabs\SimplicityStudio\v4\developer\sdks\gecko_sdk_suite\v1.1\app\builder\Z3ColorTempLightSoc_3\IAR ARM - Default\update-tc-link-key: [43]
    update-tc-link-key.o                            300               112        1
    ---------------------------------------------------------------------------------------
    Total:                                          300               112        1

command line: [44]
    ---------------------------------------------------------------------------------------
    Total:

binding-table-library.a: [45]
    binding-table.o                               1 224                 1
    zdo-binding-table.o                             448
    ---------------------------------------------------------------------------------------
    Total:                                        1 672                 1

cbke-163k1-stub-library.a: [46]
    cbke-crypto-engine-163k1-stub.o                   6                 1
    ---------------------------------------------------------------------------------------
    Total:                                            6                 1

cbke-283k1-stub-library.a: [47]
    cbke-crypto-engine-283k1-stub.o                   6                 1
    ---------------------------------------------------------------------------------------
    Total:                                            6                 1

cbke-library-dsa-sign-stub.a: [48]
    cbke-crypto-engine-dsa-sign-stub.o                4                 1
    ---------------------------------------------------------------------------------------
    Total:                                            4                 1

cbke-library-dsa-verify-283k1-stub.a: [49]
    cbke-crypto-engine-dsa-verify-283k1-stub.o                          1
    ---------------------------------------------------------------------------------------
    Total:                                                              1

cbke-library-dsa-verify-stub.a: [50]
    cbke-crypto-engine-dsa-verify-stub.o                                1
    ---------------------------------------------------------------------------------------
    Total:                                                              1

cbke-stub-library.a: [51]
    cbke-crypto-engine-stub.o                        14                 1
    ---------------------------------------------------------------------------------------
    Total:                                           14                 1

debug-basic-library.a: [52]
    debug.o                                         744                 4        4
    ---------------------------------------------------------------------------------------
    Total:                                          744                 4        4

debug-extended-stub-library.a: [53]
    debug-extended-stub.o                            26
    ---------------------------------------------------------------------------------------
    Total:                                           26

dl7M_tln.a: [54]
    memcpy.o                                         12
    memset.o                                         20
    ---------------------------------------------------------------------------------------
    Total:                                           32

end-device-bind-stub-library.a: [55]
    end-device-bind-stub.o                            6                 1
    ---------------------------------------------------------------------------------------
    Total:                                            6                 1

enhanced-beacon-request-stub-library.a: [56]
    enhanced-beacon-request-stub.o                    8                 1
    mac-info-element-parsing-stub.o                  96
    ---------------------------------------------------------------------------------------
    Total:                                          104                 1

gp-stub-library.a: [57]
    gp-stub.o                                        12
    ---------------------------------------------------------------------------------------
    Total:                                           12

hal-library.a: [58]
    cstartup-iar.o                                  388
    flash.o                                         200
    micro-common-internal.o                          68
    micro-internal.o                                388                 4        4
    register-access.o                                14
    system-timer.o                                  226                          8
    ---------------------------------------------------------------------------------------
    Total:                                        1 284                 4       12

install-code-library.a: [59]
    install-code-tokens.o                           112                 1
    ---------------------------------------------------------------------------------------
    Total:                                          112                 1

librail_efr32xg12_iar_release.a: [60]
    aux_pll.o                                       434
    bufc.o                                        1 408                      1 176
    generic_efr32xg12_seq.o                                         4 124
    generic_phy.o                                 3 748                         24        4
    ieee802154_efr32xg12_configurator_out.o                           692
    ir_cal.o                                      1 922                         21
    pa.o                                          1 964                16       16
    phy.o                                           320                          1
    phy_utils.o                                      42
    protimer.o                                    1 516                         41
    pti.o                                           276                          8
    radio.o                                       1 728                         64      148
    radio_cmu.o                                     228
    rail_assert.o                                    12
    rail_autoack.o                                  102
    rail_calibration.o                              212                          8
    rail_data.o                                       8
    rail_ieee802154.o                               320                12
    rail_ieee802154_rf_hal.o                        308
    rail_rf.o                                       314                         16
    rail_rf_hal.o                                 3 764                52       58
    rail_rx.o                                        54
    rail_tx.o                                       132
    rf_rand.o                                       288
    rf_test.o                                       492                         80
    rfsense.o                                       172                          8
    synth.o                                         740                20       20
    tempcal.o                                        80
    timings.o                                       920                         24
    ---------------------------------------------------------------------------------------
    Total:                                       21 504             4 916    1 565      152

m7M_tls.a: [61]
    fpinit_M.o                                       34
    ---------------------------------------------------------------------------------------
    Total:                                           34

mfglib-library.a: [62]
    mfglib.o                                        598                         10
    ---------------------------------------------------------------------------------------
    Total:                                          598                         10

multi-network-stub-library.a: [63]
    ember-multi-network-stub.o                      560                 1       16
    ---------------------------------------------------------------------------------------
    Total:                                          560                 1       16

packet-validate-library.a: [64]
    packet-validate.o                               924                 2        1
    ---------------------------------------------------------------------------------------
    Total:                                          924                 2        1

rf4ce-stack-stub-library.a: [65]
    rf4ce-stack-stubs.o                             104                12
    ---------------------------------------------------------------------------------------
    Total:                                          104                12

rt7M_tl.a: [66]
    ABImemclr.o                                       6
    ABImemclr4.o                                      6
    ABImemcpy_unaligned.o                           118
    ABImemset.o                                     102
    ABImemset48.o                                    50
    I64DivMod.o                                     238
    I64DivZer.o                                       2
    strlen.o                                         54
    ---------------------------------------------------------------------------------------
    Total:                                          576

security-library-core.a: [67]
    aes-mmo.o                                       330
    aps-encryption.o                              1 076                          4
    aps-keys-transient.o                            880                 1       18
    aps-keys.o                                    1 292                          8
    aps-security.o                                3 348                 3        3
    hmac.o                                           98
    security-config-mfg-3xx.o                       128
    trust-center-util.o                           1 352                 2        1
    ---------------------------------------------------------------------------------------
    Total:                                        8 504                 6       34

security-library-link-keys-stub.a: [68]
    aps-keys-full-stub.o                             14                 1
    ---------------------------------------------------------------------------------------
    Total:                                           14                 1

sim-eeprom2-1to2-upgrade-library.a: [69]
    sim-eeprom2-internal-1to2upgrade.o            1 088                        272
    ---------------------------------------------------------------------------------------
    Total:                                        1 088                        272

sim-eeprom2-library.a: [70]
    sim-eeprom2-internal.o                        4 832                24       40
    ---------------------------------------------------------------------------------------
    Total:                                        4 832                24       40

zigbee-pro-leaf-stack.a: [71]
    address-table.o                                 784
    aes.o                                           216
    application-support.o                         2 568                 2        4
    aps-retry.o                                   2 376                 1       15
    association.o                                 5 476                26       58
    broadcast.o                                     352                        100
    byte-utilities.o                                 90
    child-aging.o                                   364
    child-handling.o                                792                 2       26
    child-stub.o                                     52                          1
    child-table.o                                    72
    command.o                                       872                          1
    crypto.o                                      1 408
    duty-cycle-stub.o                                30                          9
    em_crypto.o                                     304
    ember-library.o                                 148                 1
    ember-stack-common.o                            456
    ember-version.o                                                     8
    eui64.o                                          24                          8
    event-control.o                                 580                          2
    jit.o                                           640                 1       15
    leaf-routing-stub.o                             208                12        9
    leave.o                                         998                 2       14
    mac-arbiter.o                                 1 088                 5       23
    mac-header.o                                    840                 2       15
    mac-indirect-stub.o                              24
    mac-phy.o                                       604                 2       11
    mac-receive.o                                   700                 8       16
    mac.o                                         1 208                        141
    management.o                                    860                 2       14
    neighbor.o                                    1 604                          9
    network.o                                     5 720                 5       14
    packet-buffer.o                               1 728                 1        1
    packet-header.o                                 588
    phy-config-MHz.o                                                   36
    phy-util.o                                       18
    phy.o                                         4 492                92      276
    radio_config_em3xxx_2.4GHz.o                                       92        4
    random-id.o                                     820                 1        3
    retry.o                                         694                         16
    route-error.o                                   328
    scan.o                                        1 048                 2       38
    symbol-timer.o                                  268                          8
    token-cache.o                                   376                 2        2
    unicast-table.o                                  96                         17
    zdo-channel.o                                   704                 2       18
    zigbee-device-util.o                          1 788                         16
    zigbee-device.o                               2 440                 8       12
    zigbee-dispatch.o                               256                         13
    zigbee-neighbor.o                               440
    zigbee-packet-header.o                        1 508
    zigbee-stack.o                                1 376                 9       11
    ---------------------------------------------------------------------------------------
    Total:                                       50 426               324      940

zll-stub-library.a: [72]
    zll-stubs.o                                      50                 1        8
    ---------------------------------------------------------------------------------------
    Total:                                           50                 1        8

    Gaps                                            120               220        2
    Linker created                                   24                 2    3 920
-------------------------------------------------------------------------------------------
    Grand Total:                                177 414      532   27 223   51 431      152


*******************************************************************************
*** ENTRY LIST
***

Entry                      Address    Size  Type      Object
-----                      -------    ----  ----      ------
.bss$$Base              0x2003e400           --   Gb  - Linker created -
.bss$$Length            0x00001b5d           --   Gb  - Linker created -
.bss$$Limit             0x2003ff5d           --   Gb  - Linker created -
.data$$Base             0x2003df44           --   Gb  - Linker created -
.data$$Limit            0x2003e400           --   Gb  - Linker created -
.data_init$$Base        0x00031bf8           --   Gb  - Linker created -
.data_init$$Length      0x000004bc           --   Gb  - Linker created -
.data_init$$Limit       0x000320b4           --   Gb  - Linker created -
.noinit$$Base           0x00000000           --   Gb  - Linker created -
.text$$Base             0x00000520           --   Gb  - Linker created -
.text$$Limit            0x0002ba26           --   Gb  - Linker created -
.textrw$$Base           0x2003dd30           --   Gb  - Linker created -
.textrw$$Limit          0x2003df44           --   Gb  - Linker created -
.textrw_init$$Base      0x0000030c           --   Gb  - Linker created -
.textrw_init$$Length    0x00000214           --   Gb  - Linker created -
.textrw_init$$Limit     0x00000520           --   Gb  - Linker created -
ACMP0_IRQHandler        0x0002a115          Code  Wk  isr-stubs.o [14]
ADC0_IRQHandler         0x0002a519    0x86  Code  Gb  adc-efr32.o [2]
ADC_InitSingle          0x00029faf    0xa2  Code  Gb  em_adc.o [17]
ADC_IntGetEnabled       0x0002a489     0x8  Code  Lc  adc-efr32.o [2]
ADC_LoadDevinfoCal      0x00029edf    0xa8  Code  Lc  em_adc.o [17]
ADC_Start               0x0002a491     0x4  Code  Lc  adc-efr32.o [2]
AGC_IRQHandler          0x0002497f     0x8  Code  Gb  radio.o [60]
ALIGN_CSTACK$$Base      0x2003d3d0           --   Gb  - Linker created -
ALIGN_CSTACK$$Limit     0x2003dd30           --   Gb  - Linker created -
APPRO_block$$Base       0x00000200           --   Gb  - Linker created -
APPRO_block$$Limit      0x000320b4           --   Gb  - Linker created -
APPRW_block$$Base       0x2003d3d0           --   Gb  - Linker created -
APPRW_block$$Limit      0x2003ff5d           --   Gb  - Linker created -
APP_RAM$$Base           0x00000000           --   Gb  - Linker created -
APP_RAM$$Length         0x00000000           --   Gb  - Linker created -
AUXPLL_AuxSettingsPllLoopback
                        0x00029643    0x14  Code  Gb  aux_pll.o [60]
AUXPLL_Configure        0x00029595    0xae  Code  Gb  aux_pll.o [60]
AUXPLL_ConvertAuxLoDivToRegVal
                        0x0002969d    0x52  Code  Gb  aux_pll.o [60]
AUXPLL_Start            0x0002953d    0x58  Code  Gb  aux_pll.o [60]
AUXPLL_Stop             0x00029657    0x16  Code  Gb  aux_pll.o [60]
BUFC_Config             0x0001898f    0x18  Code  Lc  bufc.o [60]
BUFC_ConfigureCallbacks
                        0x00018a91    0x42  Code  Gb  bufc.o [60]
BUFC_GetBytesAvailable  0x00018c4b    0x10  Code  Gb  bufc.o [60]
BUFC_GetSpaceAvailable  0x00018c35    0x16  Code  Gb  bufc.o [60]
BUFC_IRQHandler         0x0002498f     0x8  Code  Gb  radio.o [60]
BUFC_Init               0x000189a7    0xae  Code  Gb  bufc.o [60]
BUFC_IrqHandler         0x0001886f   0x120  Code  Lc  bufc.o [60]
BUFC_ReadBuffer         0x00018b85    0x3e  Code  Gb  bufc.o [60]
BUFC_ReadHelper         0x00018bc3    0x72  Code  Lc  bufc.o [60]
BUFC_RxBuffer           0x2003f86c   0x200  Data  Gb  bufc.o [60]
BUFC_RxBufferBytesAvailable
                        0x00018d7d     0x4  Code  Gb  bufc.o [60]
BUFC_RxBufferDropBytes  0x00018d45    0x26  Code  Gb  bufc.o [60]
BUFC_RxBufferGet        0x00018ca3     0x6  Code  Gb  bufc.o [60]
BUFC_RxBufferPacketAvailable
                        0x00018d6b    0x12  Code  Gb  bufc.o [60]
BUFC_RxBufferReadBytes  0x00018d3d     0x8  Code  Gb  bufc.o [60]
BUFC_RxBufferReset      0x00018ca9    0x22  Code  Gb  bufc.o [60]
BUFC_RxBufferSet        0x00018c8f    0x14  Code  Gb  bufc.o [60]
BUFC_RxLengthBuffer     0x2003fc6c    0x40  Data  Lc  bufc.o [60]
BUFC_RxLengthReadNext   0x00018d81    0x28  Code  Gb  bufc.o [60]
BUFC_SetCallbacks       0x00018a55    0x3c  Code  Gb  bufc.o [60]
BUFC_TxAckBuffer        0x2003fcac    0x40  Data  Lc  bufc.o [60]
BUFC_TxAckBufferSet     0x00018c5b    0x34  Code  Gb  bufc.o [60]
BUFC_TxBuffer           0x2003fa6c   0x200  Data  Lc  bufc.o [60]
BUFC_WriteBuffer        0x00018ad5    0xb0  Code  Gb  bufc.o [60]
BUS_RegBitRead          0x00018f73     0xe  Code  Lc  em_cmu.o [17]
BUS_RegBitRead          0x00011ea7     0xe  Code  Lc  em_emu.o [17]
BUS_RegBitRead          0x0001e6e5     0xe  Code  Lc  uartdrv.o [16]
BUS_RegBitRead          0x000206a5     0xe  Code  Lc  button.o [14]
BUS_RegBitRead          0x00018845     0xe  Code  Lc  bufc.o [60]
BUS_RegBitRead          0x00024755     0xe  Code  Lc  radio.o [60]
BUS_RegBitRead          0x0002510d     0xe  Code  Lc  protimer.o [60]
BUS_RegBitRead          0x0002b959     0xe  Code  Lc  rfsense.o [60]
BUS_RegBitWrite         0x00029ed1     0xe  Code  Lc  em_adc.o [17]
BUS_RegBitWrite         0x00018f65     0xe  Code  Lc  em_cmu.o [17]
BUS_RegBitWrite         0x00011e99     0xe  Code  Lc  em_emu.o [17]
BUS_RegBitWrite         0x0001caed     0xe  Code  Lc  em_gpio.o [17]
BUS_RegBitWrite         0x000298f7     0xe  Code  Lc  em_ldma.o [17]
BUS_RegBitWrite         0x00006313     0xe  Code  Lc  micro-common.o [14]
BUS_RegBitWrite         0x0000e0e9     0xe  Code  Lc  debug-jtag-efr32.o [12]
BUS_RegBitWrite         0x00005169     0xe  Code  Lc  phy.o [71]
BUS_RegBitWrite         0x000129e5     0xe  Code  Lc  micro-internal.o [58]
BUS_RegBitWrite         0x0000dfa9     0xe  Code  Lc  aes.o [71]
BUS_RegBitWrite         0x0001c9bd     0xe  Code  Lc  em_crypto.o [71]
BUS_RegMaskedClear      0x0001cb03     0x8  Code  Lc  em_gpio.o [17]
BUS_RegMaskedClear      0x00029905     0x8  Code  Lc  em_ldma.o [17]
BUS_RegMaskedClear      0x0001e6fb     0x8  Code  Lc  uartdrv.o [16]
BUS_RegMaskedClear      0x0001c439     0x8  Code  Lc  led.o [14]
BUS_RegMaskedSet        0x0001cafb     0x8  Code  Lc  em_gpio.o [17]
BUS_RegMaskedSet        0x0001e6f3     0x8  Code  Lc  uartdrv.o [16]
BUS_RegMaskedSet        0x0001c431     0x8  Code  Lc  led.o [14]
BUS_RegMaskedWrite      0x0001cb0b    0x14  Code  Lc  em_gpio.o [17]
CHIP_Init               0x00002e75    0x50  Code  Lc  micro.o [14]
CMU_ClockDivGet         0x00019197     0xa  Code  Gb  em_cmu.o [17]
CMU_ClockEnable         0x000191a1    0x6a  Code  Gb  em_cmu.o [17]
CMU_ClockFreqGet        0x0001920b   0x122  Code  Gb  em_cmu.o [17]
CMU_ClockPrescGet       0x0001932d    0x92  Code  Gb  em_cmu.o [17]
CMU_ClockSelectGet      0x000193f9    0xb8  Code  Gb  em_cmu.o [17]
CMU_ClockSelectSet      0x000194b1   0x17a  Code  Gb  em_cmu.o [17]
CMU_DivToLog2           0x000114e5     0xa  Code  Lc  rtcdriver.o [16]
CMU_HFRCOBandGet        0x000196c3     0x8  Code  Gb  em_cmu.o [17]
CMU_HFRCOBandSet        0x0001970d    0x9e  Code  Gb  em_cmu.o [17]
CMU_HFRCODevinfoGet     0x00019651    0x72  Code  Lc  em_cmu.o [17]
CMU_HFXOInit            0x000197d1    0x8a  Code  Gb  em_cmu.o [17]
CMU_IRQHandler          0x0002a115          Code  Wk  isr-stubs.o [14]
CMU_Lock                0x00011ef7     0xa  Code  Lc  em_emu.o [17]
CMU_Log2ToDiv           0x00018f81     0x8  Code  Lc  em_cmu.o [17]
CMU_OscillatorEnable    0x00019871    0xf0  Code  Gb  em_cmu.o [17]
CMU_OscillatorTuningGet
                        0x00019975    0x34  Code  Gb  em_cmu.o [17]
CMU_OscillatorTuningOptimize
                        0x00019a91    0x22  Code  Gb  em_cmu.o [17]
CMU_OscillatorTuningSet
                        0x000199b9    0x8a  Code  Gb  em_cmu.o [17]
CMU_OscillatorTuningWait
                        0x00019a4b    0x46  Code  Gb  em_cmu.o [17]
CMU_Unlock              0x00011f01     0xc  Code  Lc  em_emu.o [17]
CMU_UpdateWaitStates    0x000190c5     0x2  Code  Gb  em_cmu.o [17]
COM_DeInit              0x000110a9    0x4a  Code  Gb  com.o [14]
COM_FlushRx             0x00011365    0x46  Code  Gb  com.o [14]
COM_ForceWriteData      0x000112b5    0x30  Code  Gb  com.o [14]
COM_Init                0x00010fcb    0xda  Code  Gb  com.o [14]
COM_InternalPowerDown   0x00010f0b    0x34  Code  Gb  com.o [14]
COM_InternalPowerUp     0x00010f43    0x36  Code  Gb  com.o [14]
COM_InternalReceiveData
                        0x00010f79    0x52  Code  Gb  com.o [14]
COM_PrintfVarArg        0x000111d1    0x24  Code  Gb  com.o [14]
COM_RX_IRQHandler       0x00010e67    0x84  Code  Gb  com.o [14]
COM_ReadByte            0x000110f9    0xb6  Code  Gb  com.o [14]
COM_RxGpioWakeInit      0x000113d1     0x2  Code  Gb  com.o [14]
COM_Unused              0x000113b3    0x1e  Code  Gb  com.o [14]
COM_WaitSend            0x00011325    0x40  Code  Gb  com.o [14]
COM_WriteData           0x00011201    0xb4  Code  Gb  com.o [14]
CORE_AtomicDisableIrq   0x00012dad     0x8  Code  Wk  em_core.o [17]
CORE_AtomicEnableIrq    0x00002db1     0x8  Code  Wk  em_core.o [17]
CORE_CriticalDisableIrq
                        0x000209d9     0x4  Code  Wk  em_core.o [17]
CORE_CriticalEnableIrq  0x000209dd     0x4  Code  Wk  em_core.o [17]
CORE_EnterAtomic        0x0000ea21     0xc  Code  Wk  em_core.o [17]
CORE_EnterCritical      0x00026a41     0x8  Code  Wk  em_core.o [17]
CORE_ExitAtomic         0x0000ea2d     0x6  Code  Wk  em_core.o [17]
CORE_ExitCritical       0x00026a49     0x6  Code  Wk  em_core.o [17]
CORE_IrqIsBlocked       0x00028a99    0x4c  Code  Wk  em_core.o [17]
CORE_IrqIsDisabled      0x0001e1d9    0x1a  Code  Wk  em_core.o [17]
CORE_NvicIRQDisabled    0x000209b3    0x18  Code  Gb  em_core.o [17]
CRYOTIMER_IRQHandler    0x0002a115          Code  Wk  isr-stubs.o [14]
CRYPTO1_IRQHandler      0x0002a115          Code  Wk  isr-stubs.o [14]
CRYPTO_AES_ECB128       0x0001ca53     0xa  Code  Gb  em_crypto.o [71]
CRYPTO_AES_ECBx         0x0001ca6d    0x3c  Code  Lc  em_crypto.o [71]
CRYPTO_AES_ProcessLoop  0x0001caaf    0x3e  Code  Lc  em_crypto.o [71]
CRYPTO_BurstFromCrypto  0x0001c9df    0x14  Code  Lc  em_crypto.o [71]
CRYPTO_BurstToCrypto    0x0000dfb7    0x14  Code  Lc  aes.o [71]
CRYPTO_BurstToCrypto    0x0001c9cb    0x14  Code  Lc  em_crypto.o [71]
CRYPTO_DDataWrite       0x0001c9f3    0x10  Code  Lc  em_crypto.o [71]
CRYPTO_IRQHandler       0x0002a115          Code  Wk  isr-stubs.o [14]
CRYPTO_KeyBufWrite      0x0000dfcb    0x3c  Code  Lc  aes.o [71]
CRYPTO_KeyBufWrite      0x0001ca0b    0x30  Code  Lc  em_crypto.o [71]
CSEN_IRQHandler         0x0002a115          Code  Wk  isr-stubs.o [14]
CSTACK$$Base            0x2003d3d0           --   Gb  - Linker created -
CSTACK$$Limit           0x2003dd30           --   Gb  - Linker created -
CheckParams             0x0001ec13    0x1c  Code  Lc  uartdrv.o [16]
ConfigGpio              0x0001f9df    0x94  Code  Lc  uartdrv.o [16]
DEBUG_CHANNEL$$Base     0x00000000           --   Gb  - Linker created -
DEBUG_CHANNEL$$Limit    0x00000000           --   Gb  - Linker created -
DLIB_PERTHREAD_INITIALIZED_DATA$$Base
                        0x2003e400           --   Gb  - Linker created -
DLIB_PERTHREAD_INITIALIZED_DATA$$Limit
                        0x2003e400           --   Gb  - Linker created -
DLIB_PERTHREAD_ZERO_DATA$$Base
                        0x2003e400           --   Gb  - Linker created -
DLIB_PERTHREAD_ZERO_DATA$$Length
                        0x00000000           --   Gb  - Linker created -
DLIB_PERTHREAD_ZERO_DATA$$Limit
                        0x2003e400           --   Gb  - Linker created -
DMADRV_AllocateChannel  0x00028575    0x4e  Code  Gb  dmadrv.o [16]
DMADRV_DeInit           0x000285c3    0x30  Code  Gb  dmadrv.o [16]
DMADRV_FreeChannel      0x000285fb    0x3c  Code  Gb  dmadrv.o [16]
DMADRV_Init             0x00028643    0x54  Code  Gb  dmadrv.o [16]
DMADRV_MemoryPeripheral
                        0x00028697     0xc  Code  Gb  dmadrv.o [16]
DMADRV_PauseTransfer    0x000286d9    0x1c  Code  Gb  dmadrv.o [16]
DMADRV_PeripheralMemory
                        0x000286a3     0xa  Code  Gb  dmadrv.o [16]
DMADRV_ResumeTransfer   0x000286f5    0x1c  Code  Gb  dmadrv.o [16]
DMADRV_StopTransfer     0x00028725    0x20  Code  Gb  dmadrv.o [16]
DMADRV_TransferActive   0x00028757    0x2c  Code  Gb  dmadrv.o [16]
DMADRV_TransferRemainingCount
                        0x00028795    0x24  Code  Gb  dmadrv.o [16]
DelayTicksEM1           0x0001e3ff    0x5a  Code  Lc  ustimer.o [16]
DelayTicksPolled        0x0001e3dd    0x22  Code  Lc  ustimer.o [16]
DequeueBuffer           0x0001e8a3    0x36  Code  Lc  uartdrv.o [16]
DisableReceiver         0x0001e9d1    0x36  Code  Lc  uartdrv.o [16]
DisableTransmitter      0x0001e951    0x36  Code  Lc  uartdrv.o [16]
EFRDRV_actionFunc       0x00024dec    0x20  Data  Lc  radio.o [60]
EFRDRV_irqClbk          0x2003fd40    0x40  Data  Lc  radio.o [60]
EMHEAP_overlay$$Base    0x20000000           --   Gb  - Linker created -
EMHEAP_overlay$$Limit   0x20000f50           --   Gb  - Linker created -
EMU_DCDCInit            0x00012439    0xca  Code  Gb  em_emu.o [17]
EMU_DCDCLnRcoBandSet    0x000126d1    0x20  Code  Gb  em_emu.o [17]
EMU_DCDCModeSet         0x0001239b    0x7a  Code  Gb  em_emu.o [17]
EMU_DCDCOptimizeSlice   0x00012663    0x6e  Code  Gb  em_emu.o [17]
EMU_DCDCOutputVoltageSet
                        0x00012503   0x154  Code  Gb  em_emu.o [17]
EMU_EM4Init             0x00012189    0x4e  Code  Gb  em_emu.o [17]
EMU_EnterEM1            0x0001e215    0x10  Code  Lc  ustimer.o [16]
EMU_EnterEM1            0x000127c9    0x10  Code  Lc  sleep-efm32.o [14]
EMU_EnterEM2            0x00012045    0x24  Code  Gb  em_emu.o [17]
EMU_EnterEM3            0x00012069    0x40  Code  Gb  em_emu.o [17]
EMU_EnterEM4            0x000120bd    0x50  Code  Gb  em_emu.o [17]
EMU_IRQHandler          0x00011c79     0x2  Code  Gb  tempdrv.o [16]
EMU_IntClear            0x00011edb     0x8  Code  Lc  em_emu.o [17]
EMU_IntClear            0x00011c45     0x8  Code  Lc  tempdrv.o [16]
EMU_IntDisable          0x00011c4d     0xc  Code  Lc  tempdrv.o [16]
EMU_IntEnable           0x00011c59     0x8  Code  Lc  tempdrv.o [16]
EMU_IntGet              0x00011ee3     0x8  Code  Lc  em_emu.o [17]
EMU_IntGetEnabled       0x00011c69    0x10  Code  Lc  tempdrv.o [16]
EMU_UnlatchPinRetention
                        0x00002ec5     0x8  Code  Lc  micro.o [14]
EMU_Unlock              0x00011eeb     0xc  Code  Lc  em_emu.o [17]
EMU_VScaleEM01          0x00012143    0x46  Code  Gb  em_emu.o [17]
EMU_VScaleEM01ByClock   0x0001210d    0x36  Code  Gb  em_emu.o [17]
EMU_VScaleGet           0x00018f9b    0x14  Code  Lc  em_cmu.o [17]
EMU_VScaleGet           0x00011ec7    0x14  Code  Lc  em_emu.o [17]
EMU_VScaleWait          0x00018f89    0x12  Code  Lc  em_cmu.o [17]
EMU_VScaleWait          0x00011eb5    0x12  Code  Lc  em_emu.o [17]
EnableReceiver          0x0001e987    0x4a  Code  Lc  uartdrv.o [16]
EnableTransmitter       0x0001e907    0x4a  Code  Lc  uartdrv.o [16]
EnqueueBuffer           0x0001e845    0x5e  Code  Lc  uartdrv.o [16]
FPUEH_IRQHandler        0x0002a115          Code  Wk  isr-stubs.o [14]
FRC_IRQHandler          0x00024955    0x1e  Code  Gb  radio.o [60]
FRC_PRI_IRQHandler      0x0002494d     0x8  Code  Gb  radio.o [60]
FcApplyState            0x0001e7e5    0x58  Code  Lc  uartdrv.o [16]
GENERIC_PHY_AGC_IRQCallback
                        0x00026531    0x30  Code  Gb  generic_phy.o [60]
GENERIC_PHY_CanModifyAck
                        0x0002688d    0x1c  Code  Gb  generic_phy.o [60]
GENERIC_PHY_ChannelSet  0x00025f33     0x6  Code  Gb  generic_phy.o [60]
GENERIC_PHY_CompareAddresses
                        0x000266e5    0x38  Code  Lc  generic_phy.o [60]
GENERIC_PHY_ConfigureAddressFiltering
                        0x00026575    0x44  Code  Gb  generic_phy.o [60]
GENERIC_PHY_ConfigureCallbacks
                        0x00025af9   0x168  Code  Gb  generic_phy.o [60]
GENERIC_PHY_DisableAddress
                        0x00026805    0x1c  Code  Gb  generic_phy.o [60]
GENERIC_PHY_EnableAddressFiltering
                        0x000265bd    0x10  Code  Gb  generic_phy.o [60]
GENERIC_PHY_EnableAddressRaw
                        0x00026661    0x18  Code  Lc  generic_phy.o [60]
GENERIC_PHY_EnableIEEE802154
                        0x0002682b    0x16  Code  Gb  generic_phy.o [60]
GENERIC_PHY_FRC_IRQCallback
                        0x00026091   0x19a  Code  Gb  generic_phy.o [60]
GENERIC_PHY_Init        0x00025cf7    0xd0  Code  Gb  generic_phy.o [60]
GENERIC_PHY_IsEnabledIEEE802154
                        0x00026851     0x6  Code  Gb  generic_phy.o [60]
GENERIC_PHY_MODEM_IRQCallback
                        0x000264ad    0x6e  Code  Gb  generic_phy.o [60]
GENERIC_PHY_PROTIMER_HandleChannelTimeout
                        0x000262b1    0xc6  Code  Lc  generic_phy.o [60]
GENERIC_PHY_PROTIMER_IRQCallback
                        0x0002622d    0x7e  Code  Gb  generic_phy.o [60]
GENERIC_PHY_PacketRxAppendedInfoHelper
                        0x00025e37    0xba  Code  Gb  generic_phy.o [60]
GENERIC_PHY_PacketTx    0x00025dfd    0x34  Code  Gb  generic_phy.o [60]
GENERIC_PHY_PacketTxCommon
                        0x00025dc7    0x36  Code  Gb  generic_phy.o [60]
GENERIC_PHY_PreviousTxTime
                        0x00026057     0xa  Code  Gb  generic_phy.o [60]
GENERIC_PHY_RACConfig   0x00026061    0x2e  Code  Gb  generic_phy.o [60]
GENERIC_PHY_RAC_IRQCallback
                        0x000263a1    0xfc  Code  Gb  generic_phy.o [60]
GENERIC_PHY_RadioIdle   0x00025f39    0xf8  Code  Gb  generic_phy.o [60]
GENERIC_PHY_ResetAddressFiltering
                        0x000265e5    0x16  Code  Gb  generic_phy.o [60]
GENERIC_PHY_SeqAtomicLock
                        0x00026031    0x26  Code  Gb  generic_phy.o [60]
GENERIC_PHY_SetAddressData
                        0x00026601    0x60  Code  Lc  generic_phy.o [60]
GENERIC_PHY_SetAddressFilteringMatchTable
                        0x00026725    0xcc  Code  Lc  generic_phy.o [60]
GENERIC_PHY_SetCallbacks
                        0x00025c7d    0x7a  Code  Gb  generic_phy.o [60]
GENERIC_PHY_SetIeeeLongAddress
                        0x000266b7    0x12  Code  Gb  generic_phy.o [60]
GENERIC_PHY_SetIeeePanId
                        0x00026679    0x2a  Code  Gb  generic_phy.o [60]
GENERIC_PHY_SetIeeeShortAddress
                        0x000266a3    0x14  Code  Gb  generic_phy.o [60]
GENERIC_PHY_StartRx     0x00025ef1    0x42  Code  Gb  generic_phy.o [60]
GENERIC_PHY_TimerGetTimeout
                        0x00026873     0x8  Code  Gb  generic_phy.o [60]
GENERIC_PHY_TimerStart  0x0002685d    0x10  Code  Gb  generic_phy.o [60]
GENERIC_PHY_TimerStop   0x0002686d     0x6  Code  Gb  generic_phy.o [60]
GPIOINT_CallbackRegister
                        0x00028a1b    0x18  Code  Gb  gpiointerrupt.o [16]
GPIOINT_IRQDispatcher   0x00028a33    0x26  Code  Lc  gpiointerrupt.o [16]
GPIOINT_Init            0x000289ff    0x1c  Code  Gb  gpiointerrupt.o [16]
GPIO_DbgLocationSet     0x0001cb43     0x2  Code  Gb  em_gpio.o [17]
GPIO_DbgSWOEnable       0x0000e0f7     0x8  Code  Lc  debug-jtag-efr32.o [12]
GPIO_EVEN_IRQHandler    0x00028a71     0xc  Code  Gb  gpiointerrupt.o [16]
GPIO_ExtIntConfig       0x0001cb45    0x78  Code  Gb  em_gpio.o [17]
GPIO_IntClear           0x000289e3     0x6  Code  Lc  gpiointerrupt.o [16]
GPIO_IntClear           0x000127b1     0x6  Code  Lc  sleep-efm32.o [14]
GPIO_IntConfig          0x0001e739    0x12  Code  Lc  uartdrv.o [16]
GPIO_IntGet             0x000127b7     0x6  Code  Lc  sleep-efm32.o [14]
GPIO_IntGetEnabled      0x000289e9     0xc  Code  Lc  gpiointerrupt.o [16]
GPIO_IntGetEnabled      0x000127bd     0xc  Code  Lc  sleep-efm32.o [14]
GPIO_ODD_IRQHandler     0x00028a7d     0xa  Code  Gb  gpiointerrupt.o [16]
GPIO_PinInGet           0x0001e703     0xe  Code  Lc  uartdrv.o [16]
GPIO_PinInGet           0x000206b3     0xc  Code  Lc  button.o [14]
GPIO_PinModeSet         0x0001cbc9    0x7a  Code  Gb  em_gpio.o [17]
GPIO_PinOutClear        0x0001cb1f    0x12  Code  Lc  em_gpio.o [17]
GPIO_PinOutClear        0x0001e711    0x14  Code  Lc  uartdrv.o [16]
GPIO_PinOutClear        0x0001c441    0x12  Code  Lc  led.o [14]
GPIO_PinOutSet          0x0001cb31    0x12  Code  Lc  em_gpio.o [17]
GPIO_PinOutSet          0x0001e725    0x14  Code  Lc  uartdrv.o [16]
GPIO_PinOutSet          0x0001c453    0x12  Code  Lc  led.o [14]
GetTailBuffer           0x0001e8d9    0x1e  Code  Lc  uartdrv.o [16]
HEADER_block$$Base      0x00000000           --   Gb  - Linker created -
HEADER_block$$Limit     0x000000ac           --   Gb  - Linker created -
HwFcCtsIrqGetDrvHandle  0x0001e74b    0x24  Code  Lc  uartdrv.o [16]
HwFcGetClearToSendPin   0x0001e76f    0x1a  Code  Lc  uartdrv.o [16]
HwFcManageClearToSend   0x0001e789    0x5c  Code  Lc  uartdrv.o [16]
I2C0_IRQHandler         0x0002a115          Code  Wk  isr-stubs.o [14]
I2C1_IRQHandler         0x0002a115          Code  Wk  isr-stubs.o [14]
IDAC0_IRQHandler        0x0002a115          Code  Wk  isr-stubs.o [14]
ID_COUNT                0x00031b94     0x2  Data  Gb  sim-eeprom2.o [41]
INTERNAL_STORAGE$$Base  0x00000000           --   Gb  - Linker created -
IRCAL_Configure         0x00026af9    0x42  Code  Gb  ir_cal.o [60]
IRCAL_GetDiValue        0x0002712b    0x18  Code  Gb  ir_cal.o [60]
IRCAL_GetGlobalCalType  0x00026b3b    0x10  Code  Gb  ir_cal.o [60]
IRCAL_Init              0x00026a5d    0x9c  Code  Gb  ir_cal.o [60]
IRCAL_Perform           0x00026b4b    0x20  Code  Gb  ir_cal.o [60]
IRCAL_PerformSubfunction
                        0x00026b6b    0xa4  Code  Gb  ir_cal.o [60]
IRCAL_ReadRssi          0x0002701b    0x92  Code  Gb  ir_cal.o [60]
IRCAL_SaveRegStates     0x00026c81    0xa2  Code  Gb  ir_cal.o [60]
IRCAL_Search            0x00026f39    0x40  Code  Gb  ir_cal.o [60]
IRCAL_SearchLinear2Stage
                        0x00026f79    0x88  Code  Gb  ir_cal.o [60]
IRCAL_Set               0x00026c0f    0x14  Code  Gb  ir_cal.o [60]
IRCAL_SetRxFrequency    0x00026d23    0x38  Code  Gb  ir_cal.o [60]
IRCAL_SetSubGhzPaLoopback
                        0x00026e03   0x120  Code  Gb  ir_cal.o [60]
IRCAL_SetSubGhzPllLoopback
                        0x00026dd5    0x2e  Code  Gb  ir_cal.o [60]
IRCAL_Setup             0x00026c23    0x5e  Code  Gb  ir_cal.o [60]
IRCAL_StartRx           0x00026d5b    0x2e  Code  Gb  ir_cal.o [60]
IRCAL_StopRx            0x00026d89    0x40  Code  Gb  ir_cal.o [60]
IRCAL_Teardown          0x000270ad    0x7e  Code  Gb  ir_cal.o [60]
IRCAL_TranslateToRssiIndex
                        0x00027001     0xc  Code  Gb  ir_cal.o [60]
InitializeDma           0x0001fb2d    0x24  Code  Lc  uartdrv.o [16]
InitializeGpioFlowControl
                        0x0001fb07    0x26  Code  Lc  uartdrv.o [16]
InitializeQueues        0x0001fadd    0x2a  Code  Lc  uartdrv.o [16]
LDMA_DeInit             0x0002990d    0x1e  Code  Gb  em_ldma.o [17]
LDMA_EnableChannelRequest
                        0x0002992b     0xa  Code  Gb  em_ldma.o [17]
LDMA_IRQHandler         0x000287bd    0x74  Code  Gb  dmadrv.o [16]
LDMA_Init               0x00029935    0x52  Code  Gb  em_ldma.o [17]
LDMA_StartTransfer      0x00029987    0xb4  Code  Gb  em_ldma.o [17]
LDMA_StopTransfer       0x00029a3b    0x28  Code  Gb  em_ldma.o [17]
LDMA_TransferRemainingCount
                        0x00029a6b    0x3c  Code  Gb  em_ldma.o [17]
LESENSE_IRQHandler      0x0002a115          Code  Wk  isr-stubs.o [14]
LETIMER0_IRQHandler     0x0002a115          Code  Wk  isr-stubs.o [14]
LEUART0_IRQHandler      0x0002a115          Code  Wk  isr-stubs.o [14]
LEUART_BaudrateSet      0x000204fb    0x32  Code  Gb  em_leuart.o [17]
LEUART_Enable           0x00020539    0x14  Code  Gb  em_leuart.o [17]
LEUART_FreezeEnable     0x0002054d     0xe  Code  Gb  em_leuart.o [17]
LEUART_Init             0x0002055b    0x3e  Code  Gb  em_leuart.o [17]
LEUART_IntClear         0x0001e6e1     0x4  Code  Lc  uartdrv.o [16]
LEUART_IntClear         0x00010a43     0x4  Code  Lc  com.o [14]
LEUART_IntDisable       0x00010a47     0xa  Code  Lc  com.o [14]
LEUART_IntEnable        0x00010a51     0x8  Code  Lc  com.o [14]
LEUART_Reset            0x000205a1    0x32  Code  Gb  em_leuart.o [17]
LEUART_Sync             0x000204ed     0xe  Code  Lc  em_leuart.o [17]
LEUART_Tx               0x000205d3    0x12  Code  Gb  em_leuart.o [17]
MACSEQ_LBTFailureEvent  0x00005e01    0x32  Code  Lc  phy.o [71]
MACSEQ_RxFrameDetected  0x00005fb1    0x3a  Code  Lc  phy.o [71]
MACSEQ_TOUT0MatchLBTEvent
                        0x00005de9    0x18  Code  Lc  phy.o [71]
MACSEQ_TransmitErrorEvent
                        0x00005ef9    0x4c  Code  Lc  phy.o [71]
MODEM_IRQHandler        0x00024997     0x8  Code  Gb  radio.o [60]
MPU_ConfigureRegion     0x00028b1d    0x64  Code  Gb  em_mpu.o [17]
MPU_Disable             0x000209e1    0x1a  Code  Lc  mpu.o [14]
MPU_Enable              0x000209fb    0x16  Code  Lc  mpu.o [14]
MSC_Deinit              0x00027657    0x14  Code  Gb  em_msc.o [17]
MSC_ErasePage           0x2003de63    0x6e  Code  Gb  em_msc.o [17]
MSC_IRQHandler          0x0002a115          Code  Wk  isr-stubs.o [14]
MSC_Init                0x00027639    0x1e  Code  Gb  em_msc.o [17]
MSC_LoadVerifyAddress   0x2003dd31    0x38  Code  Gb  em_msc.o [17]
MSC_LoadWriteData       0x2003dd69    0x8a  Code  Gb  em_msc.o [17]
MSC_MassErase           0x2003dee7    0x3a  Code  Gb  em_msc.o [17]
MSC_WriteWord           0x2003dee3     0x4  Code  Gb  em_msc.o [17]
MSC_WriteWordI          0x2003ddf3    0x70  Code  Gb  em_msc.o [17]
NVIC_ClearPendingIRQ    0x000298cf     0xc  Code  Lc  em_ldma.o [17]
NVIC_ClearPendingIRQ    0x000289d1     0xa  Code  Lc  gpiointerrupt.o [16]
NVIC_ClearPendingIRQ    0x000114d7     0xe  Code  Lc  rtcdriver.o [16]
NVIC_ClearPendingIRQ    0x00011c37     0xe  Code  Lc  tempdrv.o [16]
NVIC_ClearPendingIRQ    0x0001e209     0xc  Code  Lc  ustimer.o [16]
NVIC_ClearPendingIRQ    0x00010a1f     0xe  Code  Lc  com.o [14]
NVIC_ClearPendingIRQ    0x00006301     0xa  Code  Lc  micro-common.o [14]
NVIC_ClearPendingIRQ    0x00018831    0x14  Code  Lc  bufc.o [60]
NVIC_ClearPendingIRQ    0x00025a7d    0x14  Code  Lc  generic_phy.o [60]
NVIC_ClearPendingIRQ    0x000250f9    0x14  Code  Lc  protimer.o [60]
NVIC_DisableIRQ         0x000298bd     0xa  Code  Lc  em_ldma.o [17]
NVIC_DisableIRQ         0x00010a0b     0xc  Code  Lc  com.o [14]
NVIC_EnableIRQ          0x000298b1     0xc  Code  Lc  em_ldma.o [17]
NVIC_EnableIRQ          0x000289c5     0xc  Code  Lc  gpiointerrupt.o [16]
NVIC_EnableIRQ          0x000114c1     0xe  Code  Lc  rtcdriver.o [16]
NVIC_EnableIRQ          0x00011c21     0xe  Code  Lc  tempdrv.o [16]
NVIC_EnableIRQ          0x0001e1f5     0xc  Code  Lc  ustimer.o [16]
NVIC_EnableIRQ          0x000109fd     0xe  Code  Lc  com.o [14]
NVIC_EnableIRQ          0x000062f5     0xc  Code  Lc  micro-common.o [14]
NVIC_GetEnableIRQ       0x000127ef     0x2  Code  Lc  sleep-efm32.o [14]
NVIC_GetPendingIRQ      0x000127ad     0x4  Code  Lc  sleep-efm32.o [14]
NVIC_GetPriority        0x00020999    0x1a  Code  Lc  em_core.o [17]
NVIC_SetPriority        0x000298db    0x1c  Code  Lc  em_ldma.o [17]
PA_0dbmConfigSet        0x00016d3d    0x32  Code  Gb  pa.o [60]
PA_20dbmConfigSet       0x00016d0b    0x32  Code  Gb  pa.o [60]
PA_BandSelect           0x0001720d    0x46  Code  Gb  pa.o [60]
PA_BatHighRun           0x00017089    0x1e  Code  Gb  pa.o [60]
PA_CTuneSet             0x000171e1    0x28  Code  Gb  pa.o [60]
PA_OutputPowerSet       0x00016ce5    0x10  Code  Gb  pa.o [60]
PA_PeakDetectorHighRun  0x0001704f    0x2a  Code  Gb  pa.o [60]
PA_PeakDetectorLowRun   0x00017087     0x2  Code  Gb  pa.o [60]
PA_PowerFromStripesAndSlicesCommonCalc
                        0x00016f31    0x36  Code  Gb  pa.o [60]
PA_PowerLevelOptimize   0x00016f67    0x3e  Code  Gb  pa.o [60]
PA_PowerLevelSet        0x00016d9d    0xf2  Code  Gb  pa.o [60]
PA_PowerModeConfigSet   0x00016cf5    0x16  Code  Gb  pa.o [60]
PA_RampConfigSet        0x0001718b    0x16  Code  Gb  pa.o [60]
PA_RampTimeCalc         0x000171a1    0x40  Code  Gb  pa.o [60]
PA_RampTimeGet          0x000170a7     0x6  Code  Gb  pa.o [60]
PA_RampTimeSet          0x000170d1    0xba  Code  Gb  pa.o [60]
PA_StripesAndSlicesCalc
                        0x00016fa5    0x7c  Code  Gb  pa.o [60]
PA_StripesAndSlicesCommonCalc
                        0x00016ee3    0x4e  Code  Gb  pa.o [60]
PA_StripesAndSlicesSet  0x00016e8f    0x54  Code  Gb  pa.o [60]
PA_SubGhz20dbmConfigSet
                        0x00016d6f    0x2e  Code  Gb  pa.o [60]
PA_UpdateConfig         0x000170ad    0x24  Code  Gb  pa.o [60]
PCNT0_IRQHandler        0x0002a115          Code  Wk  isr-stubs.o [14]
PCNT1_IRQHandler        0x0002a115          Code  Wk  isr-stubs.o [14]
PCNT2_IRQHandler        0x0002a115          Code  Wk  isr-stubs.o [14]
PHY_UTILS_DelayUs       0x00029509    0x2a  Code  Gb  phy_utils.o [60]
PROTIMER_CCTimerCapture
                        0x000254bd    0x10  Code  Gb  protimer.o [60]
PROTIMER_CCTimerIsEnabled
                        0x000254b1     0x6  Code  Gb  protimer.o [60]
PROTIMER_CCTimerStart   0x0002527f   0x21a  Code  Gb  protimer.o [60]
PROTIMER_CCTimerStop    0x0002525f    0x20  Code  Gb  protimer.o [60]
PROTIMER_ClearRxEnable  0x000254d5     0x8  Code  Gb  protimer.o [60]
PROTIMER_ClearTxEnable  0x000254cd     0x8  Code  Gb  protimer.o [60]
PROTIMER_DelayUs        0x00025603    0x6c  Code  Gb  protimer.o [60]
PROTIMER_ElapsedTime    0x0002522d    0x32  Code  Gb  protimer.o [60]
PROTIMER_GetTime        0x000254dd    0x38  Code  Gb  protimer.o [60]
PROTIMER_IRQHandler     0x00024987     0x8  Code  Gb  radio.o [60]
PROTIMER_Init           0x0002511b    0xc2  Code  Gb  protimer.o [60]
PROTIMER_IsRunning      0x0002520f     0x8  Code  Gb  protimer.o [60]
PROTIMER_LBTCfgSet      0x0002551b    0x54  Code  Gb  protimer.o [60]
PROTIMER_LBTIsActive    0x000255ab     0xe  Code  Gb  protimer.o [60]
PROTIMER_LBTStart       0x00025587    0x12  Code  Gb  protimer.o [60]
PROTIMER_LBTStop        0x00025599    0x12  Code  Gb  protimer.o [60]
PROTIMER_LBTUseLastConfig
                        0x0002556f    0x18  Code  Gb  protimer.o [60]
PROTIMER_PrecntOverflowToUs
                        0x000255b9    0x28  Code  Gb  protimer.o [60]
PROTIMER_Reset          0x00025217    0x16  Code  Gb  protimer.o [60]
PROTIMER_Start          0x000251dd    0x16  Code  Gb  protimer.o [60]
PROTIMER_Stop           0x000251f3    0x14  Code  Gb  protimer.o [60]
PROTIMER_UsToPrecntOverflow
                        0x000255e1    0x22  Code  Gb  protimer.o [60]
PROTIMER_WrapMultiple   0x0002549f    0x12  Code  Gb  protimer.o [60]
PROTIMER_scheduledOverflows
                        0x2003e668     0x8  Data  Gb  protimer.o [60]
PROTIMER_scheduledRxEnable
                        0x2003e678     0x8  Data  Gb  protimer.o [60]
PROTIMER_softwareTimerTimeout
                        0x2003e670     0x8  Data  Gb  protimer.o [60]
PTR_CACHE_SIZE          0x00031b96     0x2  Data  Gb  sim-eeprom2.o [41]
RAC_RSM_IRQHandler      0x00024973     0x2  Code  Gb  radio.o [60]
RAC_SEQ_IRQHandler      0x00024975     0x2  Code  Gb  radio.o [60]
RADIOCMU_ClockEnable    0x00027551    0x3e  Code  Gb  radio_cmu.o [60]
RADIOCMU_ClockFreqGet   0x0002758f    0x70  Code  Gb  radio_cmu.o [60]
RADIOCMU_ClockPrescGet  0x000275ff    0x22  Code  Gb  radio_cmu.o [60]
RADIO_AGCCCAThresholdSet
                        0x00024c39    0x12  Code  Gb  radio.o [60]
RADIO_AndSync           0x00024a21     0xa  Code  Lc  radio.o [60]
RADIO_CLKEnable         0x000248a5    0x56  Code  Gb  radio.o [60]
RADIO_ClearDisableIRQ   0x00025aa7    0x14  Code  Lc  generic_phy.o [60]
RADIO_ClearEnableIRQ    0x00018853    0x1c  Code  Lc  bufc.o [60]
RADIO_ClearEnableIRQ    0x00025a91    0x16  Code  Lc  generic_phy.o [60]
RADIO_ClrBitSync        0x00024a03     0x6  Code  Lc  radio.o [60]
RADIO_ComputeAgcSampleRate
                        0x00024c4b    0x3c  Code  Gb  radio.o [60]
RADIO_ComputeRxBaudrate
                        0x00024a67    0x42  Code  Gb  radio.o [60]
RADIO_ComputeTxBaudrate
                        0x00024a4b    0x16  Code  Gb  radio.o [60]
RADIO_ComputeTxBitRate  0x00024adf    0x48  Code  Gb  radio.o [60]
RADIO_ComputeTxSymbolRate
                        0x00024ab1    0x2e  Code  Gb  radio.o [60]
RADIO_Config            0x000248fb    0x48  Code  Gb  radio.o [60]
RADIO_Delay             0x00024a45     0x6  Code  Lc  radio.o [60]
RADIO_FRCErrorHandle    0x000249f3     0x4  Code  Gb  radio.o [60]
RADIO_FrameControlDescrBufferIdSet
                        0x000249d7    0x1c  Code  Gb  radio.o [60]
RADIO_GetRSSI           0x00024b27    0xc6  Code  Gb  radio.o [60]
RADIO_GetRssiPeriod     0x00024c8d    0x74  Code  Gb  radio.o [60]
RADIO_Init              0x00024809    0x44  Code  Gb  radio.o [60]
RADIO_OrSync            0x00024a11     0x8  Code  Lc  radio.o [60]
RADIO_PA_Init           0x00016c5d    0x88  Code  Gb  pa.o [60]
RADIO_PTI_AuxdataOutput
                        0x0001859d     0xe  Code  Gb  pti.o [60]
RADIO_PTI_Disable       0x00018589    0x14  Code  Gb  pti.o [60]
RADIO_PTI_Enable        0x00018551    0x38  Code  Gb  pti.o [60]
RADIO_PTI_Init          0x000184c1    0x90  Code  Gb  pti.o [60]
RADIO_RACClearRxOverflow
                        0x00024d05    0x1a  Code  Gb  radio.o [60]
RADIO_RACRxAbort        0x00025ac3    0x36  Code  Lc  generic_phy.o [60]
RADIO_RegisterIrqCallback
                        0x00024943     0xa  Code  Gb  radio.o [60]
RADIO_RewriteCcTableData
                        0x000247e3    0x26  Code  Gb  radio.o [60]
RADIO_RxTrailDataLength
                        0x0002499f    0x38  Code  Gb  radio.o [60]
RADIO_SeqInit           0x0002484d    0x58  Code  Gb  radio.o [60]
RADIO_SetAgcCcaParams   0x00024bed    0x4c  Code  Gb  radio.o [60]
RADIO_SetAndForgetWrite
                        0x0002478b    0x58  Code  Gb  radio.o [60]
RADIO_SetBitSync        0x000249fb     0x8  Code  Lc  radio.o [60]
RADIO_WaitForSetSync    0x00024a2b    0x1a  Code  Lc  radio.o [60]
RADIO_WriteContASync    0x00024785     0x6  Code  Lc  radio.o [60]
RADIO_WriteContSync     0x00024763    0x22  Code  Lc  radio.o [60]
RADIO_WriteSync         0x000249f7     0x4  Code  Lc  radio.o [60]
RADIO_XorSync           0x00024a19     0x8  Code  Lc  radio.o [60]
RAILCb_AllocateMemory   0x00006099     0xc  Code  Gb  phy.o [71]
RAILCb_AssertFailed     0x000061f1     0xa  Code  Gb  phy.o [71]
RAILCb_BeginWriteMemory
                        0x000060b3     0x4  Code  Gb  phy.o [71]
RAILCb_CalNeeded        0x000061e3     0x4  Code  Gb  phy.o [71]
RAILCb_EndWriteMemory   0x000060b7     0x2  Code  Gb  phy.o [71]
RAILCb_FreeMemory       0x000060b1     0x2  Code  Gb  phy.o [71]
RAILCb_IEEE802154_DataRequestCommand
                        0x0000604f    0x4a  Code  Gb  phy.o [71]
RAILCb_RadioStateChanged
                        0x000061eb     0x2  Code  Gb  phy.o [71]
RAILCb_RfReady          0x000061e7     0x2  Code  Gb  phy.o [71]
RAILCb_RssiAverageDone  0x000061e9     0x2  Code  Gb  phy.o [71]
RAILCb_RxAckTimeout     0x00005e3d    0x26  Code  Gb  phy.o [71]
RAILCb_RxFifoAlmostFull
                        0x000061ed     0x2  Code  Gb  phy.o [71]
RAILCb_RxPacketReceived
                        0x000060b9   0x11c  Code  Gb  phy.o [71]
RAILCb_RxRadioStatusExt
                        0x00005ff9    0x50  Code  Gb  phy.o [71]
RAILCb_TimerExpired     0x000061dd     0x6  Code  Gb  phy.o [71]
RAILCb_TxFifoAlmostEmpty
                        0x000061ef     0x2  Code  Gb  phy.o [71]
RAILCb_TxPacketSent     0x00005e63    0x92  Code  Gb  phy.o [71]
RAILCb_TxRadioStatus    0x00005f45    0x6c  Code  Gb  phy.o [71]
RAILINT_CalibrationClear
                        0x000169f3    0x18  Code  Gb  rail_calibration.o [60]
RAILINT_CalibrationEnable
                        0x000169b1    0x18  Code  Gb  rail_calibration.o [60]
RAILINT_CalibrationEnableGet
                        0x00016a0b     0x6  Code  Gb  rail_calibration.o [60]
RAILINT_CalibrationPend
                        0x000169c9    0x2a  Code  Gb  rail_calibration.o [60]
RAILInt_Assert          0x00026a4f     0xc  Code  Gb  rail_assert.o [60]
RAILInt_CompensateForDelay
                        0x0001691b     0x4  Code  Gb  phy.o [60]
RAILInt_GetChannel      0x00016beb     0x6  Code  Gb  rail_rf.o [60]
RAILInt_SetChannel      0x00016b83    0x68  Code  Gb  rail_rf.o [60]
RAILInt_TrackChannelConfig
                        0x00016b7d     0x6  Code  Gb  rail_rf.o [60]
RAIL_AddressFilterConfig
                        0x00016947    0x4a  Code  Gb  phy.o [60]
RAIL_AddressFilterEnable
                        0x000169a5     0x4  Code  Gb  phy.o [60]
RAIL_AddressFilterReset
                        0x000169a9     0x4  Code  Gb  phy.o [60]
RAIL_AutoAckConfig      0x00016a85    0x4c  Code  Gb  rail_autoack.o [60]
RAIL_AutoAckLoadBuffer  0x00016ad1     0xe  Code  Gb  rail_autoack.o [60]
RAIL_AutoAckRxIsPaused  0x00016ae7     0x4  Code  Gb  rail_autoack.o [60]
RAIL_AutoAckRxPause     0x00016adf     0x4  Code  Gb  rail_autoack.o [60]
RAIL_AutoAckRxResume    0x00016ae3     0x4  Code  Gb  rail_autoack.o [60]
RAIL_BitRateGet         0x00017f15     0x4  Code  Gb  rail_rf_hal.o [60]
RAIL_CalEnable          0x2003fd00     0x4  Data  Lc  rail_calibration.o [60]
RAIL_CalInit            0x00016a67    0x18  Code  Gb  rail_calibration.o [60]
RAIL_CalPend            0x2003fcfc     0x4  Data  Lc  rail_calibration.o [60]
RAIL_CalPendingGet      0x00016a15    0x12  Code  Gb  rail_calibration.o [60]
RAIL_CalStart           0x00016a2f    0x38  Code  Gb  rail_calibration.o [60]
RAIL_CcaCsma            0x00017aa9   0x128  Code  Gb  rail_rf_hal.o [60]
RAIL_CcaCsma::lbtTimeout
                        0x2003e384     0x4  Data  Lc  rail_rf_hal.o [60]
RAIL_CcaCsma::reseedRandom
                        0x2003e380     0x2  Data  Lc  rail_rf_hal.o [60]
RAIL_CcaLbt             0x00017bd7    0x7e  Code  Gb  rail_rf_hal.o [60]
RAIL_ChannelConfig      0x000168c9    0x3c  Code  Gb  phy.o [60]
RAIL_DataConfig         0x000174af     0x4  Code  Gb  rail_data.o [60]
RAIL_DebugMode          0x2003fd0c     0x4  Data  Gb  rail_rf.o [60]
RAIL_DebugModeGet       0x00016bf1     0x6  Code  Gb  rail_rf.o [60]
RAIL_GetRadioEntropy    0x000169ad     0x4  Code  Gb  phy.o [60]
RAIL_GetTime            0x0001690d     0xe  Code  Gb  phy.o [60]
RAIL_IEEE802154_2p4GHzRadioConfig
                        0x000183f9    0x16  Code  Gb  rail_ieee802154.o [60]
RAIL_IEEE802154_AcceptFrames
                        0x0001846f    0x18  Code  Gb  rail_ieee802154.o [60]
RAIL_IEEE802154_Init    0x00018369    0x90  Code  Gb  rail_ieee802154.o [60]
RAIL_IEEE802154_SetAddresses
                        0x0001840f    0x24  Code  Gb  rail_ieee802154.o [60]
RAIL_IEEE802154_SetFramePending
                        0x00018487     0x4  Code  Gb  rail_ieee802154.o [60]
RAIL_IEEE802154_SetLongAddress
                        0x0001843b     0x4  Code  Gb  rail_ieee802154.o [60]
RAIL_IEEE802154_SetPanCoordinator
                        0x0001843f    0x18  Code  Gb  rail_ieee802154.o [60]
RAIL_IEEE802154_SetPanId
                        0x00018433     0x4  Code  Gb  rail_ieee802154.o [60]
RAIL_IEEE802154_SetPromiscuousMode
                        0x00018457    0x18  Code  Gb  rail_ieee802154.o [60]
RAIL_IEEE802154_SetShortAddress
                        0x00018437     0x4  Code  Gb  rail_ieee802154.o [60]
RAIL_RadioConfig        0x00016871    0x58  Code  Gb  phy.o [60]
RAIL_RfIdle             0x00016b65     0x4  Code  Gb  rail_rf.o [60]
RAIL_RfIdleExt          0x00016b69    0x14  Code  Gb  rail_rf.o [60]
RAIL_RfInit             0x00016b21    0x2c  Code  Gb  rail_rf.o [60]
RAIL_RxConfig           0x00016aeb    0x1a  Code  Gb  rail_rx.o [60]
RAIL_RxGetRSSI          0x00016909     0x4  Code  Gb  phy.o [60]
RAIL_RxStart            0x00016b09    0x18  Code  Gb  rail_rx.o [60]
RAIL_SetCcaThreshold    0x00016905     0x4  Code  Gb  phy.o [60]
RAIL_SetPtiProtocol     0x00016b4d    0x18  Code  Gb  rail_rf.o [60]
RAIL_SetRxOptions       0x00016b05     0x4  Code  Gb  rail_rx.o [60]
RAIL_SetRxTransitions   0x00016c25    0x36  Code  Gb  rail_rf.o [60]
RAIL_SetStateTiming     0x0001691f    0x28  Code  Gb  phy.o [60]
RAIL_SetTxTransitions   0x00016bfd    0x28  Code  Gb  rail_rf.o [60]
RAIL_TimerCancel        0x00017efb    0x1a  Code  Gb  rail_rf_hal.o [60]
RAIL_TimerGet           0x00017eed     0xe  Code  Gb  rail_rf_hal.o [60]
RAIL_TimerSet           0x00017ea1    0x4c  Code  Gb  rail_rf_hal.o [60]
RAIL_TxConfig           0x00017409     0x4  Code  Gb  rail_tx.o [60]
RAIL_TxDataLoad         0x000174ab     0x4  Code  Gb  rail_data.o [60]
RAIL_TxPowerSet         0x00017489     0x4  Code  Gb  rail_tx.o [60]
RAIL_TxStartWithOptions
                        0x0001740d    0x32  Code  Gb  rail_tx.o [60]
RAIL_TxStreamStart      0x0001745d    0x22  Code  Gb  rail_tx.o [60]
RAIL_TxStreamStop       0x0001747f     0x2  Code  Gb  rail_tx.o [60]
RAIL_TxToneStart        0x0001743f    0x1a  Code  Gb  rail_tx.o [60]
RAIL_TxToneStop         0x00017459     0x4  Code  Gb  rail_tx.o [60]
REAL_PAGES_PER_VIRTUAL  0x00031bd4     0x1  Data  Gb  sim-eeprom2.o [41]
REAL_PAGE_SIZE          0x0003183e     0x2  Data  Gb  sim-eeprom2.o [41]
RESETINFO$$Base         0x20000000           --   Gb  - Linker created -
RESETINFO$$Limit        0x2000009c           --   Gb  - Linker created -
RFHAL_AutoAckConfig     0x00018075    0x14  Code  Gb  rail_rf_hal.o [60]
RFHAL_AutoAckEnable     0x0001804d    0x12  Code  Gb  rail_rf_hal.o [60]
RFHAL_AutoAckLoadBuffer
                        0x00018091    0x48  Code  Gb  rail_rf_hal.o [60]
RFHAL_AutoAckRxIsPaused
                        0x0001812d     0x8  Code  Gb  rail_rf_hal.o [60]
RFHAL_AutoAckRxPause    0x000180f5    0x10  Code  Gb  rail_rf_hal.o [60]
RFHAL_AutoAckRxResume   0x00018105     0xe  Code  Gb  rail_rf_hal.o [60]
RFHAL_AutoAckWaitForAck
                        0x00018159    0x14  Code  Gb  rail_rf_hal.o [60]
RFHAL_CalibrationInit   0x00017f1f     0x6  Code  Gb  rail_rf_hal.o [60]
RFHAL_CalibrationRun    0x00017f25    0x2c  Code  Gb  rail_rf_hal.o [60]
RFHAL_DataConfig        0x00018239    0x7c  Code  Gb  rail_rf_hal.o [60]
RFHAL_DisableRxAppendedInfo
                        0x00017d2f     0xa  Code  Gb  rail_rf_hal.o [60]
RFHAL_DisableRxRawCapture
                        0x00017cf7    0x2e  Code  Gb  rail_rf_hal.o [60]
RFHAL_EnableRxAppendedInfo
                        0x00017d25     0xa  Code  Gb  rail_rf_hal.o [60]
RFHAL_EnableRxRawCapture
                        0x00017c9d    0x5a  Code  Gb  rail_rf_hal.o [60]
RFHAL_ErrorConfig       0x00017e8b    0x10  Code  Gb  rail_rf_hal.o [60]
RFHAL_HeadedToIdle      0x000179f5    0x5e  Code  Gb  rail_rf_hal.o [60]
RFHAL_IEEE802154AcceptFrames
                        0x000274cb    0x16  Code  Gb  rail_ieee802154_rf_hal.o [60]
RFHAL_IEEE802154Enable  0x0002741d     0x4  Code  Gb  rail_ieee802154_rf_hal.o [60]
RFHAL_IEEE802154IsEnabled
                        0x00027421     0x4  Code  Gb  rail_ieee802154_rf_hal.o [60]
RFHAL_IEEE802154LoadAck
                        0x0002751d    0x24  Code  Gb  rail_ieee802154_rf_hal.o [60]
RFHAL_IEEE802154RadioConfig2p4GHz
                        0x00027425    0x16  Code  Gb  rail_ieee802154_rf_hal.o [60]
RFHAL_IEEE802154SetBroadcastAddresses
                        0x0002743b    0x24  Code  Gb  rail_ieee802154_rf_hal.o [60]
RFHAL_IEEE802154SetFramePending
                        0x000274e1    0x26  Code  Gb  rail_ieee802154_rf_hal.o [60]
RFHAL_IEEE802154SetLongAddress
                        0x00027487     0x8  Code  Gb  rail_ieee802154_rf_hal.o [60]
RFHAL_IEEE802154SetPanCoordinator
                        0x000274a9    0x18  Code  Gb  rail_ieee802154_rf_hal.o [60]
RFHAL_IEEE802154SetPanId
                        0x0002745f     0xc  Code  Gb  rail_ieee802154_rf_hal.o [60]
RFHAL_IEEE802154SetPromiscuousMode
                        0x0002748f    0x1a  Code  Gb  rail_ieee802154_rf_hal.o [60]
RFHAL_IEEE802154SetShortAddress
                        0x0002746b     0xc  Code  Gb  rail_ieee802154_rf_hal.o [60]
RFHAL_IdleExt           0x00017959    0x2a  Code  Gb  rail_rf_hal.o [60]
RFHAL_Init              0x00017841    0x86  Code  Gb  rail_rf_hal.o [60]
RFHAL_OkToTransmit      0x000179e3    0x12  Code  Gb  rail_rf_hal.o [60]
RFHAL_ResetRxFifo       0x000182d5    0x16  Code  Gb  rail_rf_hal.o [60]
RFHAL_ResetTxFifo       0x000182bd    0x18  Code  Gb  rail_rf_hal.o [60]
RFHAL_RxIntEnable       0x00017d39    0xa4  Code  Gb  rail_rf_hal.o [60]
RFHAL_RxStart           0x00017c83    0x1a  Code  Gb  rail_rf_hal.o [60]
RFHAL_SetCcaThreshold   0x00017c55     0x4  Code  Gb  rail_rf_hal.o [60]
RFHAL_SetChannel        0x00017ff3    0x54  Code  Gb  rail_rf_hal.o [60]
RFHAL_SetCurrPowerLevel
                        0x00017f91    0x1e  Code  Gb  rail_rf_hal.o [60]
RFHAL_SetPtiProtocol    0x0001793d    0x1c  Code  Gb  rail_rf_hal.o [60]
RFHAL_SetRemoveCrc      0x00018171    0x50  Code  Gb  rail_rf_hal.o [60]
RFHAL_SetRxOptions      0x00017ddd    0x48  Code  Gb  rail_rf_hal.o [60]
RFHAL_SetRxTransitions  0x00017f6d    0x14  Code  Gb  rail_rf_hal.o [60]
RFHAL_SetTxSyncWord     0x000181c1    0x10  Code  Gb  rail_rf_hal.o [60]
RFHAL_SetTxTransitions  0x00017f51    0x16  Code  Gb  rail_rf_hal.o [60]
RFHAL_StartCWTestMode   0x00017fd7     0xe  Code  Gb  rail_rf_hal.o [60]
RFHAL_StartStreamTestMode
                        0x00017fe5     0xe  Code  Gb  rail_rf_hal.o [60]
RFHAL_StateGet          0x00017983    0x60  Code  Gb  rail_rf_hal.o [60]
RFHAL_StopTestMode      0x00017fc9     0x6  Code  Gb  rail_rf_hal.o [60]
RFHAL_TxDataLoad        0x00017a53    0x56  Code  Gb  rail_rf_hal.o [60]
RFHAL_TxIntEnable       0x00017e25    0x48  Code  Gb  rail_rf_hal.o [60]
RFHAL_TxStart           0x00017c59    0x2a  Code  Gb  rail_rf_hal.o [60]
RFRAND_GetRadioEntropy  0x00026921    0xc4  Code  Gb  rf_rand.o [60]
RFRAND_SeedProtimerRandom
                        0x000269e5    0x30  Code  Gb  rf_rand.o [60]
RFSENSE_Cb              0x2003fdd8     0x4  Data  Lc  rfsense.o [60]
RFSENSE_Disable         0x0002b967    0x34  Code  Lc  rfsense.o [60]
RFSENSE_IRQHandler      0x0002b9e5     0x2  Code  Gb  rfsense.o [60]
RFSENSE_Sensed          0x0002b99b    0x4a  Code  Gb  rfsense.o [60]
RFTEST_RestoreRadioConfiguration
                        0x00027295    0x60  Code  Gb  rf_test.o [60]
RFTEST_SaveRadioConfiguration
                        0x00027231    0x64  Code  Gb  rf_test.o [60]
RFTEST_StartCwTx        0x000272f5    0x4e  Code  Gb  rf_test.o [60]
RFTEST_StartStreamTx    0x00027343    0x1c  Code  Gb  rf_test.o [60]
RFTEST_StopTx           0x0002735f    0x42  Code  Gb  rf_test.o [60]
RMU_ResetCauseClear     0x00012d3b     0x8  Code  Gb  em_rmu.o [17]
RMU_ResetCauseGet       0x00012d43    0x54  Code  Gb  em_rmu.o [17]
RMU_ResetControl        0x00012d1f    0x1c  Code  Gb  em_rmu.o [17]
RTCC_ChannelCCVGet      0x000114ef     0xc  Code  Lc  rtcdriver.o [16]
RTCC_ChannelCCVSet      0x000114fb     0xc  Code  Lc  rtcdriver.o [16]
RTCC_ChannelInit        0x00020839    0x2e  Code  Gb  em_rtcc.o [17]
RTCC_CounterGet         0x00011507     0x8  Code  Lc  rtcdriver.o [16]
RTCC_IRQHandler         0x0001190f    0x80  Code  Gb  rtcdriver.o [16]
RTCC_Init               0x00020867    0x38  Code  Gb  em_rtcc.o [17]
RTCC_IntClear           0x0001150f     0x8  Code  Lc  rtcdriver.o [16]
RTCC_IntDisable         0x00011517     0xc  Code  Lc  rtcdriver.o [16]
RTCC_IntEnable          0x00011523     0x8  Code  Lc  rtcdriver.o [16]
RTCC_IntGetEnabled      0x00011533    0x10  Code  Lc  rtcdriver.o [16]
RTCDRV_AllocateTimer    0x00011543    0x3e  Code  Gb  rtcdriver.o [16]
RTCDRV_GetWallClockTicks64
                        0x000118cb    0x18  Code  Gb  rtcdriver.o [16]
RTCDRV_Init             0x00011581    0xa8  Code  Gb  rtcdriver.o [16]
RTCDRV_StartTimer       0x00011629   0x1b8  Code  Gb  rtcdriver.o [16]
RTCDRV_TicksToMsec      0x000118eb    0x12  Code  Gb  rtcdriver.o [16]
RTCDRV_TimeRemaining    0x00011827    0xa4  Code  Gb  rtcdriver.o [16]
ReceiveDmaComplete      0x0001ea99    0xe8  Code  Lc  uartdrv.o [16]
SEGGER_RTT_AllocDownBuffer
                        0x0001cd71    0x5c  Code  Gb  SEGGER_RTT.o [11]
SEGGER_RTT_Init         0x0001ce1d     0x2  Code  Gb  SEGGER_RTT.o [11]
SEGGER_RTT_Read         0x0001cd47    0x1a  Code  Gb  SEGGER_RTT.o [11]
SEGGER_RTT_ReadNoLock   0x0001ccd1    0x76  Code  Gb  SEGGER_RTT.o [11]
SIMEE$$Base             0x000f7000           --   Gb  - Linker created -
SIMEE$$Limit            0x00100000           --   Gb  - Linker created -
SL_CTZ                  0x00012d15     0xa  Code  Lc  em_rmu.o [17]
SL_CTZ                  0x000289f5     0xa  Code  Lc  gpiointerrupt.o [16]
SMU_IRQHandler          0x0002a115          Code  Wk  isr-stubs.o [14]
SYNTH_ChSpacingGet      0x00024e1b     0x6  Code  Gb  synth.o [60]
SYNTH_ChannelSet        0x00024f31    0x32  Code  Gb  synth.o [60]
SYNTH_Config            0x00024e7d    0xb4  Code  Gb  synth.o [60]
SYNTH_DCDCRetimeClkSet  0x00025023    0x46  Code  Gb  synth.o [60]
SYNTH_DCDCRetimeDisable
                        0x00025069    0x10  Code  Gb  synth.o [60]
SYNTH_DCDCRetimeEnable  0x0002501b     0x8  Code  Gb  synth.o [60]
SYNTH_IRQHandler        0x0002a115          Code  Wk  isr-stubs.o [14]
SYNTH_IfFreqGet         0x00024e21     0x6  Code  Gb  synth.o [60]
SYNTH_Is2p4GHz          0x00024e49    0x10  Code  Gb  synth.o [60]
SYNTH_KvnFreqCompensationEnable
                        0x00025079     0x8  Code  Gb  synth.o [60]
SYNTH_LoDivGet          0x00024e27    0x22  Code  Gb  synth.o [60]
SYNTH_RetimeClkConfig   0x00024f63    0x6a  Code  Gb  synth.o [60]
SYNTH_RetimeLimitsConfig
                        0x00024fcd    0x4e  Code  Gb  synth.o [60]
SYNTH_RfFreqGet         0x00024e15     0x6  Code  Gb  synth.o [60]
SYNTH_VcoRangeIsValid   0x00024e59    0x24  Code  Gb  synth.o [60]
SYSTEM_ChipRevisionGet  0x000294c1    0x36  Code  Gb  em_system.o [17]
SYSTEM_GetProdRev       0x00002e6d     0x8  Code  Lc  micro.o [14]
SetHandleIndex          0x0001fa8b    0x4c  Code  Lc  uartdrv.o [16]
SetupGpioLeuart         0x0001f701   0x2d4  Code  Lc  uartdrv.o [16]
SetupGpioUart           0x0001ec2f   0xac4  Code  Lc  uartdrv.o [16]
StartReceiveDma         0x0001ea0d    0x44  Code  Lc  uartdrv.o [16]
StartTransfer           0x00028831   0x14a  Code  Lc  dmadrv.o [16]
StartTransmitDma        0x0001ea51    0x48  Code  Lc  uartdrv.o [16]
StateTransitionConfig   0x21001f14     0x4  Data  Gb  generic_phy.o [60]
SystemCoreClock         0x2003dfc0     0x4  Data  Gb  system_efr32mg12p.o [17]
SystemCoreClockGet      0x000205f9    0x1c  Code  Gb  system_efr32mg12p.o [17]
SystemCoreClockUpdate   0x00011e95     0x4  Code  Lc  em_emu.o [17]
SystemHFClockGet        0x00020619    0x32  Code  Gb  system_efr32mg12p.o [17]
SystemHFXOClock         0x2003dfbc     0x4  Data  Lc  system_efr32mg12p.o [17]
SystemHFXOClockGet      0x0002064b     0x6  Code  Gb  system_efr32mg12p.o [17]
SystemHFXOClockSet      0x00020651    0x16  Code  Gb  system_efr32mg12p.o [17]
SystemHfrcoFreq         0x2003dfc4     0x4  Data  Gb  system_efr32mg12p.o [17]
SystemInit              0x00020667     0xe  Code  Gb  system_efr32mg12p.o [17]
SystemLFRCOClockGet     0x00020695     0x2  Code  Gb  system_efr32mg12p.o [17]
SystemLFXOClockGet      0x0002069d     0x2  Code  Gb  system_efr32mg12p.o [17]
SystemMaxCoreClockGet   0x00020615     0x4  Code  Gb  system_efr32mg12p.o [17]
SystemULFRCOClockGet    0x00020697     0x6  Code  Gb  system_efr32mg12p.o [17]
TEMPCAL_Init            0x000271e1    0x30  Code  Gb  tempcal.o [60]
TEMPCAL_Perform         0x00027211    0x14  Code  Gb  tempcal.o [60]
TEMPDRV_GetTemp         0x00011e47     0x8  Code  Gb  tempdrv.o [16]
TEMPDRV_IRQHandler      0x00011c7b    0x5e  Code  Gb  tempdrv.o [16]
TEMPDRV_Init            0x00011dd1    0x66  Code  Gb  tempdrv.o [16]
TEMPDRV_InitState       0x2003ff1d     0x1  Data  Lc  tempdrv.o [16]
TIMER0_IRQHandler       0x0001e3bf    0x18  Code  Gb  ustimer.o [16]
TIMER1_IRQHandler       0x0002a115          Code  Wk  isr-stubs.o [14]
TIMER_CompareSet        0x0001e23d    0x14  Code  Lc  ustimer.o [16]
TIMER_CounterGet        0x0001e251     0x4  Code  Lc  ustimer.o [16]
TIMER_Init              0x00028479    0x92  Code  Gb  em_timer.o [17]
TIMER_InitCC            0x0002850b    0x6a  Code  Gb  em_timer.o [17]
TIMER_IntClear          0x0001e255     0x4  Code  Lc  ustimer.o [16]
TIMER_IntDisable        0x0001e259     0xa  Code  Lc  ustimer.o [16]
TIMER_IntEnable         0x0001e263     0x8  Code  Lc  ustimer.o [16]
TIMER_IntGet            0x0001e26b     0x4  Code  Lc  ustimer.o [16]
TIMER_MaxCount          0x0001e225    0x18  Code  Lc  ustimer.o [16]
TIMER_TopSet            0x0001e26f     0xe  Code  Lc  ustimer.o [16]
TIMER_Valid             0x00028449    0x20  Code  Lc  em_timer.o [17]
TIMING_GetProTimerCc0Wrap
                        0x000259cb    0x42  Code  Lc  timings.o [60]
TIMING_GetRxTimestampUs
                        0x00025991    0x16  Code  Gb  timings.o [60]
TIMING_GetTxTimestampUs
                        0x000259a7    0x16  Code  Gb  timings.o [60]
TIMING_InitStimer       0x000256e5    0x62  Code  Gb  timings.o [60]
TIMING_NsToStimerTickCalc
                        0x000257bf     0xe  Code  Gb  timings.o [60]
TIMING_NsToStimerTickCalcSigned
                        0x0002579d    0x22  Code  Gb  timings.o [60]
TIMING_RecalculateAll   0x00025965    0x1c  Code  Gb  timings.o [60]
TIMING_RxFrameToTxTimeRecalculate
                        0x00025827    0x28  Code  Gb  timings.o [60]
TIMING_RxFrameToTxTimeSet
                        0x0002584f    0x10  Code  Gb  timings.o [60]
TIMING_RxSearchTimeSet  0x00025925     0xa  Code  Gb  timings.o [60]
TIMING_RxToTxTimeRecalculate
                        0x000257f1    0x14  Code  Gb  timings.o [60]
TIMING_RxToTxTimeSet    0x00025817    0x10  Code  Gb  timings.o [60]
TIMING_RxWarmTimeGet    0x0002591f     0x6  Code  Gb  timings.o [60]
TIMING_RxWarmTimeRecalculate
                        0x000258f5    0x1a  Code  Gb  timings.o [60]
TIMING_RxWarmTimeSet    0x0002590f    0x10  Code  Gb  timings.o [60]
TIMING_SeqTimingInit    0x00025747    0x56  Code  Gb  timings.o [60]
TIMING_SetChainDelays   0x00025981    0x10  Code  Gb  timings.o [60]
TIMING_TxToRxSearchTimeSet
                        0x0002592f     0x8  Code  Gb  timings.o [60]
TIMING_TxToRxTimeRecalculate
                        0x000258c7    0x1e  Code  Gb  timings.o [60]
TIMING_TxToRxTimeSet    0x000258e5    0x10  Code  Gb  timings.o [60]
TIMING_TxToTxTimeRecalculate
                        0x00025875    0x20  Code  Gb  timings.o [60]
TIMING_TxToTxTimeSet    0x00025895    0x32  Code  Gb  timings.o [60]
TIMING_TxWarmTimeRecalculate
                        0x000257cd    0x14  Code  Gb  timings.o [60]
TIMING_TxWarmTimeSet    0x000257e1    0x10  Code  Gb  timings.o [60]
TOKEN_BULB_PWM_FREQUENCY_HZ_DEFAULTS
                        0x00031bca     0x2  Data  Gb  token-def.o [1]
TOKEN_BULB_PWM_MAX_ON_US_DEFAULTS
                        0x00031bce     0x2  Data  Gb  token-def.o [1]
TOKEN_BULB_PWM_MIN_ON_US_DEFAULTS
                        0x00031bcc     0x2  Data  Gb  token-def.o [1]
TOKEN_BULB_UI_MIN_ON_TIME_DEFAULTS
                        0x00031bd0     0x2  Data  Gb  token-def.o [1]
TOKEN_BULB_UI_POWER_UP_BEHAVIOR_DEFAULTS
                        0x00031be4     0x1  Data  Gb  token-def.o [1]
TOKEN_BULB_UI_TIMEOUT_DEFAULTS
                        0x00031bd2     0x2  Data  Gb  token-def.o [1]
TOKEN_COLOR_CONTROL_COLOR_TEMPERATURE_1_DEFAULTS
                        0x00031bc8     0x2  Data  Gb  token-def.o [1]
TOKEN_CURRENT_LEVEL_1_DEFAULTS
                        0x00031bdd     0x1  Data  Gb  token-def.o [1]
TOKEN_MFG_CCA_THRESHOLD
                        0x00031ba4     0x2  Data  Gb  mfg-token.o [14]
TOKEN_MFG_CTUNE         0x00031ba6     0x2  Data  Gb  mfg-token.o [14]
TOKEN_MFG_CUSTOM_EUI_64
                        0x00031b9c     0x2  Data  Gb  mfg-token.o [14]
TOKEN_MFG_EUI_64        0x00031bae     0x2  Data  Gb  mfg-token.o [14]
TOKEN_MFG_INSTALLATION_CODE
                        0x00031ba8     0x2  Data  Gb  mfg-token.o [14]
TOKEN_MFG_LIB_ENABLED_DEFAULTS
                        0x00031be5     0x1  Data  Gb  token-def.o [1]
TOKEN_MFG_PHY_CONFIG    0x00031ba0     0x2  Data  Gb  mfg-token.o [14]
TOKEN_MFG_SECURE_BOOTLOADER_KEY
                        0x00031bac     0x2  Data  Gb  mfg-token.o [14]
TOKEN_MFG_SECURITY_CONFIG
                        0x00031baa     0x2  Data  Gb  mfg-token.o [14]
TOKEN_MFG_STRING        0x00031b9e     0x2  Data  Gb  mfg-token.o [14]
TOKEN_MFG_SYNTH_FREQ_OFFSET
                        0x00031ba2     0x2  Data  Gb  mfg-token.o [14]
TOKEN_MULTI_NETWORK_STACK_ALTERNATE_KEY_DEFAULTS
                        0x00030f94    0x14  Data  Gb  token-def.o [1]
TOKEN_MULTI_NETWORK_STACK_KEYS_DEFAULTS
                        0x00030f70    0x14  Data  Gb  token-def.o [1]
TOKEN_MULTI_NETWORK_STACK_NETWORK_MANAGEMENT_DEFAULTS
                        0x00030fc4     0x8  Data  Gb  token-def.o [1]
TOKEN_MULTI_NETWORK_STACK_NODE_DATA_DEFAULTS
                        0x00030f84    0x10  Data  Gb  token-def.o [1]
TOKEN_MULTI_NETWORK_STACK_NONCE_COUNTER_DEFAULTS
                        0x00030fd8     0x4  Data  Gb  token-def.o [1]
TOKEN_MULTI_NETWORK_STACK_PARENT_ADDITIONAL_INFO_DEFAULTS
                        0x00031bc6     0x2  Data  Gb  token-def.o [1]
TOKEN_MULTI_NETWORK_STACK_PARENT_INFO_DEFAULTS
                        0x00030fcc     0xc  Data  Gb  token-def.o [1]
TOKEN_MULTI_NETWORK_STACK_TRUST_CENTER_DEFAULTS
                        0x00030fa8    0x1c  Data  Gb  token-def.o [1]
TOKEN_ON_LEVEL_1_DEFAULTS
                        0x00031bde     0x1  Data  Gb  token-def.o [1]
TOKEN_ON_OFF_1_DEFAULTS
                        0x00031bdc     0x1  Data  Gb  token-def.o [1]
TOKEN_OTA_CONFIG_DISTRIBUTED_KEY_DEFAULTS
                        0x00031198    0x10  Data  Gb  token-def.o [1]
TOKEN_OTA_CONFIG_HW_VERSION_DEFAULTS
                        0x00031be3     0x1  Data  Gb  token-def.o [1]
TOKEN_OTA_CONFIG_LOCK_DEFAULTS
                        0x00031bdf     0x1  Data  Gb  token-def.o [1]
TOKEN_OTA_CONFIG_MANUFACTURER_NAME_DEFAULTS
                        0x00031178    0x20  Data  Gb  token-def.o [1]
TOKEN_OTA_CONFIG_MODEL_NAME_DEFAULTS
                        0x00031158    0x20  Data  Gb  token-def.o [1]
TOKEN_OTA_CONFIG_TX_POWER25_DEFAULTS
                        0x00031be1     0x1  Data  Gb  token-def.o [1]
TOKEN_OTA_CONFIG_TX_POWER26_DEFAULTS
                        0x00031be2     0x1  Data  Gb  token-def.o [1]
TOKEN_OTA_CONFIG_TX_POWER_DEFAULTS
                        0x00031be0     0x1  Data  Gb  token-def.o [1]
TOKEN_REBOOT_MONITOR_DEFAULTS
                        0x00031150     0x4  Data  Gb  token-def.o [1]
TOKEN_REPORT_TABLE_DEFAULTS
                        0x000311a8    0x14  Data  Gb  token-def.o [1]
TOKEN_SCENES_NUM_ENTRIES_DEFAULTS
                        0x00031be6     0x1  Data  Gb  token-def.o [1]
TOKEN_SCENES_TABLE_DEFAULTS
                        0x000311bc    0x24  Data  Gb  token-def.o [1]
TOKEN_SHORT_REBOOT_MONITOR_DEFAULTS
                        0x00031154     0x4  Data  Gb  token-def.o [1]
TOKEN_STACK_ADDITIONAL_CHILD_DATA_DEFAULTS
                        0x00031bdb     0x1  Data  Gb  token-def.o [1]
TOKEN_STACK_ALTERNATE_KEY_DEFAULTS
                        0x00030f00    0x14  Data  Gb  token-def.o [1]
TOKEN_STACK_ANALYSIS_REBOOT_DEFAULTS
                        0x00031bc2     0x2  Data  Gb  token-def.o [1]
TOKEN_STACK_APS_FRAME_COUNTER_DEFAULTS
                        0x00030efc     0x4  Data  Gb  token-def.o [1]
TOKEN_STACK_BINDING_TABLE_DEFAULTS
                        0x00030fdc    0x10  Data  Gb  token-def.o [1]
TOKEN_STACK_BOOT_COUNTER_DEFAULTS
                        0x00030f14     0x4  Data  Gb  token-def.o [1]
TOKEN_STACK_CERTIFICATE_TABLE_DEFAULTS
                        0x00031014    0x5c  Data  Gb  token-def.o [1]
TOKEN_STACK_CHILD_TABLE_DEFAULTS
                        0x00030fec     0xc  Data  Gb  token-def.o [1]
TOKEN_STACK_GP_DATA_DEFAULTS
                        0x000310e8    0x14  Data  Gb  token-def.o [1]
TOKEN_STACK_GP_PROXY_TABLE_DEFAULTS
                        0x000310fc    0x34  Data  Gb  token-def.o [1]
TOKEN_STACK_GP_SINK_TABLE_DEFAULTS
                        0x00031130    0x20  Data  Gb  token-def.o [1]
TOKEN_STACK_KEYS_DEFAULTS
                        0x00030f1c    0x14  Data  Gb  token-def.o [1]
TOKEN_STACK_KEY_TABLE_DEFAULTS
                        0x00030ff8    0x1c  Data  Gb  token-def.o [1]
TOKEN_STACK_NETWORK_MANAGEMENT_DEFAULTS
                        0x00030f5c     0x8  Data  Gb  token-def.o [1]
TOKEN_STACK_NODE_DATA_DEFAULTS
                        0x00030f30    0x10  Data  Gb  token-def.o [1]
TOKEN_STACK_NONCE_COUNTER_DEFAULTS
                        0x00030f18     0x4  Data  Gb  token-def.o [1]
TOKEN_STACK_NVDATA_VERSION_DEFAULTS
                        0x00031bc0     0x2  Data  Gb  token-def.o [1]
TOKEN_STACK_PARENT_ADDITIONAL_INFO_DEFAULTS
                        0x00031bc4     0x2  Data  Gb  token-def.o [1]
TOKEN_STACK_PARENT_INFO_DEFAULTS
                        0x00030f64     0xc  Data  Gb  token-def.o [1]
TOKEN_STACK_RF4CE_DATA_DEFAULTS
                        0x000310a8    0x14  Data  Gb  token-def.o [1]
TOKEN_STACK_RF4CE_PAIRING_TABLE_DEFAULTS
                        0x000310bc    0x2c  Data  Gb  token-def.o [1]
TOKEN_STACK_TRUST_CENTER_DEFAULTS
                        0x00030f40    0x1c  Data  Gb  token-def.o [1]
TOKEN_STACK_ZLL_DATA_DEFAULTS
                        0x00031070    0x10  Data  Gb  token-def.o [1]
TOKEN_STACK_ZLL_SECURITY_DEFAULTS
                        0x00031080    0x28  Data  Gb  token-def.o [1]
TRNG0_IRQHandler        0x0002a115          Code  Wk  isr-stubs.o [14]
TransmitDmaComplete     0x0001eb91    0x50  Code  Lc  uartdrv.o [16]
UARTDRV_Abort           0x0001ff09   0x11c  Code  Gb  uartdrv.o [16]
UARTDRV_DeInit          0x0001fe7d    0x8c  Code  Gb  uartdrv.o [16]
UARTDRV_FlowControlGetSelfStatus
                        0x00020167     0x4  Code  Gb  uartdrv.o [16]
UARTDRV_FlowControlSet  0x0002011b    0x1a  Code  Gb  uartdrv.o [16]
UARTDRV_FlowControlSetPeerStatus
                        0x00020135    0x32  Code  Gb  uartdrv.o [16]
UARTDRV_ForceTransmit   0x0002016b    0xa4  Code  Gb  uartdrv.o [16]
UARTDRV_GetPeripheralStatus
                        0x00020025    0x50  Code  Gb  uartdrv.o [16]
UARTDRV_GetReceiveDepth
                        0x00020075     0x4  Code  Gb  uartdrv.o [16]
UARTDRV_GetReceiveStatus
                        0x00020079    0x3a  Code  Gb  uartdrv.o [16]
UARTDRV_GetTransmitDepth
                        0x000200b3     0x2  Code  Gb  uartdrv.o [16]
UARTDRV_GetTransmitStatus
                        0x000200bb    0x36  Code  Gb  uartdrv.o [16]
UARTDRV_InitLeuart      0x0001fd03   0x14e  Code  Gb  uartdrv.o [16]
UARTDRV_InitUart        0x0001fb51   0x19e  Code  Gb  uartdrv.o [16]
UARTDRV_PauseTransmit   0x0002020f    0x24  Code  Gb  uartdrv.o [16]
UARTDRV_Receive         0x00020249    0x38  Code  Gb  uartdrv.o [16]
UARTDRV_ResumeTransmit  0x0002029d    0x30  Code  Gb  uartdrv.o [16]
UARTDRV_Transmit        0x000202cd    0x3c  Code  Gb  uartdrv.o [16]
USART0_RX_IRQHandler    0x00010eeb    0x20  Code  Gb  com.o [14]
USART0_TX_IRQHandler    0x0002a115          Code  Wk  isr-stubs.o [14]
USART1_RX_IRQHandler    0x0002a115          Code  Wk  isr-stubs.o [14]
USART1_TX_IRQHandler    0x0002a115          Code  Wk  isr-stubs.o [14]
USART2_RX_IRQHandler    0x0002a115          Code  Wk  isr-stubs.o [14]
USART2_TX_IRQHandler    0x0002a115          Code  Wk  isr-stubs.o [14]
USART3_RX_IRQHandler    0x0002a115          Code  Wk  isr-stubs.o [14]
USART3_TX_IRQHandler    0x0002a115          Code  Wk  isr-stubs.o [14]
USART_BaudrateAsyncSet  0x000203a5    0x5c  Code  Gb  em_usart.o [17]
USART_Enable            0x00020401     0xe  Code  Gb  em_usart.o [17]
USART_InitAsync         0x0002040f    0x40  Code  Gb  em_usart.o [17]
USART_IntClear          0x0001e6dd     0x4  Code  Lc  uartdrv.o [16]
USART_IntClear          0x00010a2d     0x4  Code  Lc  com.o [14]
USART_IntDisable        0x00010a31     0xa  Code  Lc  com.o [14]
USART_IntEnable         0x00010a3b     0x8  Code  Lc  com.o [14]
USART_Reset             0x00020475    0x44  Code  Gb  em_usart.o [17]
USART_Rx                0x000204d5     0x8  Code  Gb  em_usart.o [17]
USART_Tx                0x000204e3     0xa  Code  Gb  em_usart.o [17]
USTIMER_Delay           0x0001e33b    0x30  Code  Gb  ustimer.o [16]
USTIMER_DelayIntSafe    0x0001e36b    0x30  Code  Gb  ustimer.o [16]
USTIMER_Init            0x0001e27d    0xb8  Code  Gb  ustimer.o [16]
VDAC0_IRQHandler        0x0002a115          Code  Wk  isr-stubs.o [14]
VIRTUAL_PAGE_SIZE       0x0003180a     0x2  Data  Gb  sim-eeprom2.o [41]
VPA_BASE                0x00031b88     0x2  Data  Gb  sim-eeprom2.o [41]
VPA_TOP                 0x00031b8a     0x2  Data  Gb  sim-eeprom2.o [41]
VPB_BASE                0x00031b8c     0x2  Data  Gb  sim-eeprom2.o [41]
VPB_TOP                 0x00031b8e     0x2  Data  Gb  sim-eeprom2.o [41]
VPC_BASE                0x00031b90     0x2  Data  Gb  sim-eeprom2.o [41]
VPC_TOP                 0x00031b92     0x2  Data  Gb  sim-eeprom2.o [41]
WDOG0_IRQHandler        0x00006321    0x12  Code  Gb  micro-common.o [14]
WDOG1_IRQHandler        0x0002a115          Code  Wk  isr-stubs.o [14]
WDOGn_Feed              0x00019b5d    0x18  Code  Gb  em_wdog.o [17]
WTIMER0_IRQHandler      0x0002a115          Code  Wk  isr-stubs.o [14]
WTIMER1_IRQHandler      0x0002a115          Code  Wk  isr-stubs.o [14]
_DoInit                 0x0001cc79    0x58  Code  Lc  SEGGER_RTT.o [11]
_SEGGER_RTT             0x2003e400    0xa8  Data  Gb  SEGGER_RTT.o [11]
__DLIB_PERTHREAD_init$$Base
                        0x00000000           --   Gb  - Linker created -
__DLIB_PERTHREAD_init$$Length
                        0x00000000           --   Gb  - Linker created -
__aeabi_ldiv0           0x00028b19          Code  Gb  I64DivZer.o [66]
__aeabi_memclr          0x00029535          Code  Gb  ABImemclr.o [66]
__aeabi_memclr4         0x000205f1          Code  Gb  ABImemclr4.o [66]
__aeabi_memset          0x0000e081          Code  Gb  ABImemset.o [66]
__aeabi_uldivmod        0x000208a9          Code  Gb  I64DivMod.o [66]
__iar_Memset            0x0000e081          Code  Gb  ABImemset.o [66]
__iar_Memset4_word      0x00028ae5          Code  Gb  ABImemset48.o [66]
__iar_Memset8_word      0x00028ae5          Code  Gb  ABImemset48.o [66]
__iar_Memset_word       0x0000e089          Code  Gb  ABImemset.o [66]
__iar_init_vfp          0x0002ba05          Code  Gb  fpinit_M.o [61]
__iar_unaligned___aeabi_memcpy
                        0x00009c71          Code  Gb  ABImemcpy_unaligned.o [66]
__iar_unaligned___aeabi_memcpy4
                        0x00009c91          Code  Gb  ABImemcpy_unaligned.o [66]
__iar_unaligned___aeabi_memcpy8
                        0x00009c91          Code  Gb  ABImemcpy_unaligned.o [66]
__vector_table          0x00000200   0x10c  Data  Gb  cstartup-common.o [14]
_acDownBuffer           0x2003ef5c    0x10  Data  Lc  SEGGER_RTT.o [11]
_acUpBuffer             0x2003ef4c    0x10  Data  Lc  SEGGER_RTT.o [11]
_executeBarrierInstructions
                        0x00028b81     0xe  Code  Gb  register-access.o [58]
_macTransmitBuffer      0x2003f68c    0x80  Data  Gb  mac.o [71]
adcAsyncClkGet          0x00019015    0x2c  Code  Lc  em_cmu.o [17]
adcConfig               0x2003f0f0     0xc  Data  Lc  adc-efr32.o [2]
adcInitStart            0x0002a4b1    0x5e  Code  Gb  adc-efr32.o [2]
adcPendingConversion    0x2003ff28     0x1  Data  Lc  adc-efr32.o [2]
adcPendingRequests      0x2003ff27     0x1  Data  Lc  adc-efr32.o [2]
adcReadingValid         0x2003ff29     0x1  Data  Lc  adc-efr32.o [2]
adcReadings             0x2003f0fc     0x8  Data  Lc  adc-efr32.o [2]
addDelay                0x2003fee0     0x2  Data  Lc  network.o [71]
addEntryToGroupTable    0x00021cb9    0x62  Code  Lc  groups-server.o [21]
addHue                  0x000144b9     0xe  Code  Lc  color-control-server.o [9]
addPanIdCandidate       0x000024f9    0x78  Code  Lc  network-steering.o [29]
addPartialWrite         0x00020bc7    0x2e  Code  Lc  eeprom.o [13]
addToApplicationQueue   0x0000c6cd    0x32  Code  Lc  network.o [71]
addressCacheSize        0x2003ff3a     0x1  Data  Gb  security-address-cache.o [1]
addressCacheStartIndex  0x2003ff3b     0x1  Data  Lc  security-address-cache.o [1]
addressFilterMatchTable
                        0x2003fdac     0x4  Data  Lc  generic_phy.o [60]
addressIndexIsActive    0x0000fccb    0x2c  Code  Lc  aps-retry.o [71]
addressMatchingEnabled  0x2003e2f3     0x1  Data  Lc  phy.o [71]
advanceRebootMonitor    0x00013b67    0x5e  Code  Lc  bulb-ui.o [8]
advanceShortRebootMonitor
                        0x00013bc5     0x6  Code  Lc  bulb-ui.o [8]
afDeviceEnabled         0x2003ff3d     0x1  Data  Gb  util.o [1]
afNoSecurityForDefaultResponse
                        0x2003ff3e     0x1  Data  Lc  util.o [1]
age                     0x2003f5ed     0x1  Data  Lc  broadcast.o [71]
allowIdling             0x2003ff47     0x1  Data  Lc  event-control.o [71]
apcConfigure            0x00017021    0x2e  Code  Lc  pa.o [60]
apcEnabled              0x2003e34d     0x1  Data  Lc  pa.o [60]
appProperties           0x0002d790    0x38  Data  Gb  bootloader-interface.o [19]
appResponseData         0x2003f300    0x54  Data  Gb  message.o [1]
appResponseLength       0x2003fecc     0x2  Data  Gb  message.o [1]
appZclBuffer            0x2003f3b4    0x54  Data  Gb  zcl-cli.o [1]
appZclBufferLen         0x2003fed2     0x2  Data  Gb  zcl-cli.o [1]
applicationProcessIncomingData
                        0x00006f2d   0x19c  Code  Lc  application-support.o [71]
apsCommandBaseSizes     0x0001a2e4    0x14  Data  Lc  packet-validate.o [64]
apsCommandPacketIsValid
                        0x0001a15f    0x48  Code  Lc  packet-validate.o [64]
apsPacketIsValid        0x0001a0f1    0x6e  Code  Lc  packet-validate.o [64]
areSimEe1PageCountersOkay
                        0x0002802b    0x3e  Code  Lc  sim-eeprom2-internal-1to2upgrade.o [69]
askServerToRunUpgrade   0x00015bcd    0x30  Code  Lc  ota-client.o [32]
attributeData           0x2003f18c    0x60  Data  Gb  attribute-storage.o [1]
attributeManufacturerCodes
                        0x0002f9a4     0x4  Data  Gb  attribute-storage.o [1]
attributeSizes          0x0002f550    0x30  Data  Lc  attribute-size.o [1]
autoAckEnabled          0x2003e2f4     0x1  Data  Lc  phy.o [71]
auxClkGet               0x00018fdd     0x2  Code  Lc  em_cmu.o [17]
auxHfrcoFreq            0x2003dfb8     0x4  Data  Lc  em_cmu.o [17]
availableCallbacks      0x2003fcf8     0x4  Data  Lc  bufc.o [60]
availableCallbacks      0x2003fda8     0x4  Data  Lc  generic_phy.o [60]
awaitingCoordinatorRealignment
                        0x2003f71a     0x1  Data  Lc  child-handling.o [71]
baseHeaderLength        0x0000b0e0    0x10  Data  Lc  packet-header.o [71]
bindingGroupMatch       0x00022065    0x26  Code  Lc  groups-server.o [21]
blacklistedIdBytes      0x2003ff59     0x1  Data  Lc  random-id.o [71]
blacklistedIds          0x2003e3fc     0x1  Data  Lc  random-id.o [71]
blinkPattern            0x00022ab5    0x4c  Code  Lc  bulb-pwm-driver-blink.o [7]
blinkState              0x2003eff0    0x88  Data  Gb  bulb-pwm-driver-blink.o [7]
blinking                0x2003ff10     0x1  Data  Lc  led-temp-pwm.o [25]
bootloadStateToExternalState
                        0x0002cda4     0xc  Data  Lc  ota-client.o [32]
bootloaderIsCommonBootloader
                        0x00028b91     0x4  Code  Lc  bootloader-interface-app.o [19]
bootloaderIsCommonBootloader
                        0x00029e71     0x4  Code  Lc  bootloader-interface.o [19]
bootloaderValidationContext
                        0x2003e988   0x180  Data  Gb  bootloader-interface-app.o [19]
broadcastMessageSent    0x0000fbbf   0x10c  Code  Lc  aps-retry.o [71]
broadcastPermitJoin     0x00003b3d    0x26  Code  Lc  af-main-common.o [1]
bufcCallbacks           0x2003e370    0x10  Data  Lc  rail_rf_hal.o [60]
bufcEnabledCallbacks    0x2003e36c     0x4  Data  Lc  rail_rf_hal.o [60]
bufcPendRxFrameError    0x2003fcf0     0x1  Data  Gb  bufc.o [60]
bufcRxStreaming         0x2003f864     0x8  Data  Gb  bufc.o [60]
bulbEndpoint            0x00013b61     0x6  Code  Lc  bulb-ui.o [8]
buttonArray             0x0002d950    0x10  Data  Lc  button.o [14]
buttonState             0x2003fec2     0x2  Data  Lc  button.o [14]
cacheBuffer             0x2003e3f0     0x1  Data  Lc  token-cache.o [71]
cachedImageId           0x2003e844    0x10  Data  Lc  ota-storage-simple.o [36]
cachedImageSize         0x2003e854     0x4  Data  Lc  ota-storage-simple.o [36]
cachingNetworkIndex     0x2003e3f1     0x1  Data  Lc  token-cache.o [71]
calculateSlotAndEepromOffsets
                        0x00024695     0x2  Code  Gb  ota-storage-eeprom.o [37]
calculateTimer          0x00015ea5    0x1e  Code  Lc  ota-client.o [32]
calibrationEMU          0x2003ed64     0x4  Data  Lc  tempdrv.o [16]
calibrationTEMP         0x2003ed68     0x4  Data  Lc  tempdrv.o [16]
callCommandAction       0x00004cf9   0x120  Code  Lc  command-interpreter2.o [1]
callMessageSentHandlerForSleepyBroadcast
                        0x0001c3bd    0x46  Code  Lc  jit.o [71]
callbackEnd             0x00012953     0x8  Code  Gb  system-timer.o [58]
callbacks               0x000178c8    0x74  Data  Lc  rail_rf_hal.o [60]
cancelPtaRxRequest      0x00005dc7    0x1c  Code  Lc  phy.o [71]
ccw                     0x00020e1d    0x8c  Code  Gb  led-temp-pwm.o [25]
cfsrBits                0x0002e390    0x68  Data  Lc  diagnostic.o [14]
chTable                 0x2003eb34    0x80  Data  Lc  dmadrv.o [16]
changeToChannel         0x2003f650     0x1  Data  Lc  zdo-channel.o [71]
channelConfig           0x2003fd10     0x4  Data  Lc  rail_rf.o [60]
channels                0x000184a0     0x8  Data  Lc  rail_ieee802154.o [60]
charDowncase            0x00004c29     0xe  Code  Lc  command-interpreter2.o [1]
checkAllTimers          0x0001199b    0xee  Code  Lc  rtcdriver.o [16]
checkDelay              0x00024037    0x22  Code  Lc  ota-storage-eeprom-page-erase.o [37]
checkForMovedChild      0x0000bf51    0x22  Code  Lc  network.o [71]
checkForPreceedingPartialWrite
                        0x00020b9f    0x28  Code  Lc  eeprom.o [13]
checkForWellKnownTrustCenterLinkKey
                        0x00014779    0x4a  Code  Lc  end-device-move.o [18]
checkMaybeSetParentToken
                        0x00009b59    0x34  Code  Lc  association.o [71]
checkValidLeuartPort    0x00010c31     0x4  Code  Lc  com.o [14]
checkValidPort          0x00010a59    0x10  Code  Lc  com.o [14]
checkValidThresholds    0x00010a69    0x34  Code  Lc  com.o [14]
checkValidUartPort      0x00010c35    0x10  Code  Lc  com.o [14]
childJitMessage         0x0001c319    0xa4  Code  Lc  jit.o [71]
cleanupAndStop          0x0000283d    0x48  Code  Lc  network-steering.o [29]
clearCachedId           0x00023bcf     0xa  Code  Lc  ota-storage-simple.o [36]
clearNetworkSecurityFromMessage
                        0x00008cbb    0x28  Code  Lc  association.o [71]
clearPanIdCandidates    0x00002571    0x18  Code  Lc  network-steering.o [29]
clearPartialWrite       0x00020b91     0xe  Code  Lc  eeprom.o [13]
cliBufferPrint          0x0002aa51    0x6c  Code  Gb  zcl-cli.o [1]
clusterManufacturerCodes
                        0x0002f99c     0x8  Data  Gb  attribute-storage.o [1]
clusterTickWrapper      0x000063f7    0x1e  Code  Lc  af-event.o [1]
colorHueTransitionState
                        0x2003ef84     0xc  Data  Lc  color-control-server.o [9]
colorSaturationTransitionState
                        0x2003efc0    0x10  Data  Lc  color-control-server.o [9]
colorTempTransitionState
                        0x2003efb0    0x10  Data  Lc  color-control-server.o [9]
colorXTransitionState   0x2003ef90    0x10  Data  Lc  color-control-server.o [9]
colorYTransitionState   0x2003efa0    0x10  Data  Lc  color-control-server.o [9]
comBufferQueueRxUsart0  0x2003dfdc    0x80  Data  Lc  com.o [14]
comBufferQueueTxUsart0  0x2003e05c    0x80  Data  Lc  com.o [14]
comFifoQueueRxUsart0    0x2003ed84    0x88  Data  Lc  com.o [14]
comFifoQueueTxUsart0    0x2003ee0c    0x88  Data  Lc  com.o [14]
comhandledata           0x2003ee94    0x1c  Data  Lc  com.o [14]
commandLookup           0x00004c4f    0x74  Code  Lc  command-interpreter2.o [1]
commandParse            0x00015591    0xe6  Code  Lc  ota-client.o [32]
commandState            0x2003f244    0x7c  Data  Lc  command-interpreter2.o [1]
compCtrlSet             0x000122a5    0x1a  Code  Lc  em_emu.o [17]
computeLoHighFromColorTemp
                        0x000210e5   0x102  Code  Lc  led-temp-pwm.o [25]
computeNewColor16uValue
                        0x000145c3    0x54  Code  Lc  color-control-server.o [9]
computeNewHueValue      0x000144d7    0x80  Code  Lc  color-control-server.o [9]
computeTransitionTimeFromStateAndRate
                        0x00014617    0x2c  Code  Lc  color-control-server.o [9]
conditionallySendReport
                        0x00021527    0x24  Code  Lc  reporting.o [38]
configPa::curPaConfig   0x2003f4e8     0x4  Data  Lc  phy.o [71]
configureReceivedAttribute
                        0x00021b29    0xd8  Code  Lc  reporting.o [38]
continueImageDownload   0x00015a3f    0x64  Code  Lc  ota-client.o [32]
continueImageVerification
                        0x00015b1d    0xaa  Code  Lc  ota-client.o [32]
continueScanRequest     0x0001be1f    0x56  Code  Lc  zdo-channel.o [71]
convertToTemp           0x00011ce3    0x14  Code  Lc  tempdrv.o [16]
copyAllTokens           0x0000dd9f    0x66  Code  Lc  token-cache.o [71]
copyOrLookupEui64       0x0002b321    0x2a  Code  Lc  zdo-cli.o [1]
count                   0x2003feee     0x1  Data  Lc  scan-dispatch.o [39]
countIncremarks         0x0001df11    0x82  Code  Gb  sim-eeprom2-internal.o [70]
countNonErasedHwPages   0x0001e12d    0x36  Code  Lc  sim-eeprom2-internal.o [70]
cryptInternal           0x0000a4c9   0x2b8  Code  Lc  aps-encryption.o [67]
cryptoStatus            0x2003ff30     0x1  Data  Lc  crypto-state.o [1]
cstackMemory            0x2003d3d0   0x960  Data  Gb  cstartup-common.o [14]
curCmd                  0x2003f370    0x20  Data  Gb  util.o [1]
currChSpacing           0x2003e394     0x4  Data  Gb  synth.o [60]
currIfFrequency         0x2003e390     0x4  Data  Gb  synth.o [60]
currPage                0x2003f438     0x4  Data  Gb  sim-eeprom2-internal.o [70]
currRfFrequency         0x2003e38c     0x4  Data  Gb  synth.o [60]
currentActiveCommand    0x2003ff03     0x1  Data  Lc  manufacturing-library-ota.o [28]
currentBootloadState    0x2003fef5     0x1  Data  Lc  ota-client.o [32]
currentCallbacks        0x2003fcf4     0x4  Data  Lc  bufc.o [60]
currentCallbacks        0x2003fda4     0x4  Data  Lc  generic_phy.o [60]
currentChannel          0x2003fd08     0x1  Data  Lc  rail_rf.o [60]
currentChannelMask      0x2003e8a0     0x4  Data  Lc  network-steering.o [29]
currentDownloadFile     0x2003e864    0x10  Data  Lc  ota-client.o [32]
currentEndpoint         0x00020f95    0x1a  Code  Lc  led-temp-pwm.o [25]
currentEntry            0x2003fd14     0x4  Data  Lc  rail_rf.o [60]
currentEraseOffset      0x2003e834     0x4  Data  Lc  ota-storage-eeprom-page-erase.o [37]
currentJitFlag          0x2003fee6     0x2  Data  Lc  jit.o [71]
currentLimitersUpdate   0x000121fb    0x9c  Code  Lc  em_emu.o [17]
currentNetworkState     0x2003e3c8     0x1  Data  Lc  bulb-ui.o [8]
currentRssiAverage      0x2003e35c     0x2  Data  Lc  rail_rf_hal.o [60]
current_position        0x2003e950     0x4  Data  Gb  led-temp-pwm.o [25]
customVerifyStatus      0x2003fef9     0x1  Data  Lc  ota-client.o [32]
cw                      0x00020d91    0x8c  Code  Gb  led-temp-pwm.o [25]
dataPollTimeoutHandler  0x00018681    0x10  Code  Lc  mac-phy.o [71]
dbgClkGet               0x00018ff5    0x20  Code  Lc  em_cmu.o [17]
dcdcConstCalibrationLoad
                        0x000121d7     0x4  Code  Lc  em_emu.o [17]
dcdcEm01LoadCurrent_mA  0x2003febe     0x2  Data  Lc  em_emu.o [17]
dcdcMaxCurrent_mA       0x2003febc     0x2  Data  Lc  em_emu.o [17]
dcdcRetimeClkTarget     0x2003e398     0x4  Data  Gb  synth.o [60]
dcdcRetimeDesired       0x2003e389     0x1  Data  Lc  synth.o [60]
dcdcReverseCurrentControl
                        0x2003fec0     0x2  Data  Lc  em_emu.o [17]
dcdcValidatedConfigSet  0x000121db    0x20  Code  Lc  em_emu.o [17]
deactivate              0x0001485f     0x6  Code  Lc  level-control.o [26]
decodeShortDestination  0x0001c4e9    0x46  Code  Lc  mac-header.o [71]
defaultBase             0x2003e3cb     0x1  Data  Lc  command-interpreter2.o [1]
defaultDecision         0x2003ff2c     0x1  Data  Lc  af-trust-center.o [1]
defaultLinkKey          0x0002d350    0x10  Data  Lc  network-steering.o [29]
deferredPanChange       0x00019ee7    0x3c  Code  Lc  management.o [71]
delayCount              0x2003f738     0x1  Data  Lc  retry.o [71]
dequeueFifoBuffer       0x00010a9d    0x2c  Code  Lc  com.o [14]
determineDownloadFileStatus
                        0x000154b3    0x50  Code  Lc  ota-client.o [32]
determineNextState      0x00015505    0x56  Code  Lc  ota-client.o [32]
determinePageSizeLog    0x0002401d    0x1a  Code  Lc  ota-storage-eeprom-page-erase.o [37]
deviceIsCoordinator     0x2003f4c9     0x1  Data  Lc  phy.o [71]
disableDefaultResponse  0x2003ff42     0x1  Data  Gb  zcl-cli.o [1]
disableInterrupts       0x00011cf7    0x14  Code  Lc  tempdrv.o [16]
discoveryTargetNodeId   0x2003e3aa     0x2  Data  Lc  option-cli.o [1]
dispatchZclMessage      0x00013023    0x7e  Code  Lc  util.o [1]
distributedTestKey      0x0002d360    0x10  Data  Lc  network-steering.o [29]
dmaXfer                 0x2003ebb4   0x100  Data  Lc  dmadrv.o [16]
dma_IEN                 0x2003eee4     0x4  Data  Gb  com.o [14]
downloadAndVerifyFinish
                        0x00015abd    0x60  Code  Lc  ota-client.o [32]
downloadAndVerifyFinish::zclStatusFromResult
                        0x0002cdb4     0x8  Data  Lc  ota-client.o [32]
driveTempHiLo           0x00020faf    0x12  Code  Lc  led-temp-pwm.o [25]
dropJoinBeacon          0x0000879f    0x1a  Code  Lc  association.o [71]
echoCommand             0x00016761    0x1e  Code  Gb  core-cli.o [1]
echoPrint               0x00004cc3    0x36  Code  Lc  command-interpreter2.o [1]
edCcaThreshold          0x2003e2f5     0x1  Data  Lc  phy.o [71]
eepromFirstTimeInit     0x00020b15    0x4a  Code  Lc  eeprom.o [13]
eepromInitialized       0x2003ff22     0x1  Data  Lc  eeprom.o [13]
efr32WakeUp             0x0000580d    0xb8  Code  Lc  phy.o [71]
em4Flag                 0x2003fddc     0x4  Data  Lc  rfsense.o [60]
em4WakeupCause          0x2003eef8     0x4  Data  Lc  sleep-efm32.o [14]
emActiveAlwaysOnNetworkFound
                        0x00007f87    0x14  Code  Gb  ember-multi-network-stub.o [63]
emActiveScanDuration    0x2003e2ed     0x1  Data  Gb  association.o [71]
emActiveTaskCount       0x2003ff48     0x1  Data  Lc  event-control.o [71]
emAddApsFrame           0x0000ad8f    0xfe  Code  Gb  zigbee-packet-header.o [71]
emAddBlacklistedId      0x0001b44d    0x80  Code  Gb  random-id.o [71]
emAddBroadcastTableEntry
                        0x0000ef99    0x54  Code  Gb  broadcast.o [71]
emAddCurrentNetworkToPollingQueue
                        0x00008011     0x2  Code  Gb  ember-multi-network-stub.o [63]
emAddNeighborGuaranteed
                        0x0000d4bf    0x72  Code  Gb  neighbor.o [71]
emAddPendingAckedMessage
                        0x0000f4d7    0x5e  Code  Gb  aps-retry.o [71]
emAddRejoinedChild      0x0000d115     0x2  Code  Gb  child-stub.o [71]
emAddTransientLinkKey   0x0000d7cb    0x94  Code  Gb  aps-keys-transient.o [67]
emAddTrustCenterRoute   0x0000df97     0x2  Code  Gb  leaf-routing-stub.o [71]
emAddTunnelledApsHeader
                        0x0000ccbb    0x3e  Code  Gb  trust-center-util.o [67]
emAddUnicastTableEntry  0x0001c17b    0x24  Code  Gb  unicast-table.o [71]
emAddressTable          0x2003e2a8     0x4  Data  Gb  ember-configuration.o [1]
emAddressTableSize      0x2003e3d6     0x1  Data  Gb  ember-configuration.o [1]
emAesEncrypt            0x0000e053    0x20  Code  Gb  aes.o [71]
emAfAbortPageRequest    0x00023f23     0x2  Code  Gb  ota-client-page-request.o [32]
emAfAllowTrustCenterRejoins
                        0x2003ff2b     0x1  Data  Gb  af-trust-center.o [1]
emAfAppEventContext     0x2003e1d4    0x24  Data  Gb  af-event.o [1]
emAfAppEventContextLength
                        0x2003e3a2     0x2  Data  Gb  af-event.o [1]
emAfApsFrameClusterIdSetup
                        0x0002aa43     0xe  Code  Gb  zcl-cli.o [1]
emAfApsFrameEndpointSetup
                        0x0002aa2d    0x16  Code  Gb  zcl-cli.o [1]
emAfAssertNetworkIndexStackIsEmpty
                        0x00003799     0x2  Code  Gb  multi-network.o [1]
emAfBulbPwmLedBlinkCommand
                        0x0002a3d9    0x16  Code  Gb  bulb-pwm-cli.o [6]
emAfBulbPwmLedOffCommand
                        0x0002a3b3    0x10  Code  Gb  bulb-pwm-cli.o [6]
emAfBulbPwmLedOnCommand
                        0x0002a393    0x10  Code  Gb  bulb-pwm-cli.o [6]
emAfBulbPwmLedPatternCommand
                        0x0002a441    0x1e  Code  Gb  bulb-pwm-cli.o [6]
emAfBulbPwmSetCommand   0x0002a37d    0x16  Code  Gb  bulb-pwm-cli.o [6]
emAfBulbPwmStatusBlinkCommand
                        0x0002a3f7    0x16  Code  Gb  bulb-pwm-cli.o [6]
emAfBulbPwmStatusOffCommand
                        0x0002a3c3    0x10  Code  Gb  bulb-pwm-cli.o [6]
emAfBulbPwmStatusOnCommand
                        0x0002a3a3    0x10  Code  Gb  bulb-pwm-cli.o [6]
emAfBulbPwmStatusPatternCommand
                        0x0002a45f    0x1e  Code  Gb  bulb-pwm-cli.o [6]
emAfBulbUiLeftNetwork   0x00014023    0x14  Code  Lc  bulb-ui.o [8]
emAfCalculatePercentage
                        0x00024003    0x18  Code  Gb  ota-common.o [34]
emAfCallInits           0x000041d3    0x2a  Code  Gb  attribute-storage.o [1]
emAfClearLinkKeyTable   0x000105cd     0x2  Code  Gb  af-security-common.o [1]
emAfCliBsendCommand     0x0002af39    0x76  Code  Gb  zcl-cli.o [1]
emAfCliInClCount        0x2003ff44     0x1  Data  Gb  zdo-cli.o [1]
emAfCliInfoCommand      0x0001654f   0x1da  Code  Gb  core-cli.o [1]
emAfCliNetworkIndex     0x2003ff38     0x1  Data  Gb  network-cli.o [1]
emAfCliOutClCount       0x2003ff45     0x1  Data  Gb  zdo-cli.o [1]
emAfCliRawCommand       0x0002aabd    0x4c  Code  Gb  zcl-cli.o [1]
emAfCliReadCommand      0x0002b099    0x9e  Code  Gb  zcl-cli.o [1]
emAfCliSendCommand      0x0002ae7f    0xb0  Code  Gb  zcl-cli.o [1]
emAfCliServiceDiscoveryCallback
                        0x0002a7dd    0x60  Code  Gb  option-cli.o [1]
emAfCliTimesyncCommand  0x0002afb7    0x22  Code  Gb  zcl-cli.o [1]
emAfCliVersionCommand   0x00000b01    0x18  Code  Gb  af-main-soc.o [1]
emAfCliWriteCommand     0x0002b13f    0xb4  Code  Gb  zcl-cli.o [1]
emAfCliZdoInClusters    0x2003f414     0xc  Data  Gb  zdo-cli.o [1]
emAfCliZdoOutClusters   0x2003f420     0xc  Data  Gb  zdo-cli.o [1]
emAfClusterAttributeChangedCallback
                        0x00004105    0x48  Code  Gb  attribute-storage.o [1]
emAfClusterPreAttributeChangedCallback
                        0x0000414d    0x40  Code  Gb  attribute-storage.o [1]
emAfCommandApsFrame     0x2003f240     0x4  Data  Gb  client-api.o [1]
emAfConfigurationServerLockCommand
                        0x0002a119    0x1a  Code  Gb  configuration-server-cli.o [10]
emAfConfigurationServerReadCommand
                        0x0002a213   0x128  Code  Gb  configuration-server-cli.o [10]
emAfConfigurationServerSetCommand
                        0x0002a133    0x3a  Code  Gb  configuration-server-cli.o [10]
emAfCopyMessageIntoRamBuffer
                        0x00000987    0x32  Code  Gb  af-main-soc.o [1]
emAfCurrentCommand      0x2003f390     0x4  Data  Gb  util.o [1]
emAfCurrentNetworkType  0x2003f354     0x4  Data  Gb  multi-network.o [1]
emAfCurrentZigbeeProNetwork
                        0x2003f358     0x4  Data  Gb  multi-network.o [1]
emAfEepromInfoCommand   0x00029409    0x7e  Code  Gb  eeprom-cli.o [13]
emAfEepromSavedPartialWrites
                        0x2003eefc    0x10  Data  Gb  eeprom.o [13]
emAfEnablePollCompletedCallback
                        0x2003ff16     0x1  Data  Gb  end-device-support.o [18]
emAfEndpoints           0x2003f17c    0x10  Data  Gb  attribute-storage.o [1]
emAfEventStrings        0x2003e1f8    0x48  Data  Gb  af-event.o [1]
emAfEvents              0x0002f1c0    0x98  Data  Gb  af-event.o [1]
emAfExtendedPanId       0x2003f3ac     0x8  Data  Gb  util.o [1]
emAfGetCryptoStatus     0x000063bd     0x6  Code  Gb  crypto-state.o [1]
emAfGetCurrentPageRequestStatus
                        0x00023f17     0x4  Code  Gb  ota-client-page-request.o [32]
emAfGetEblStartOffset   0x000244f7     0x4  Code  Gb  ota-storage-eeprom.o [37]
emAfGetFinishedPageRequestOffset
                        0x00023f1f     0x4  Code  Gb  ota-client-page-request.o [32]
emAfGetManufacturerCodeForAttribute
                        0x000042e7    0x22  Code  Gb  attribute-storage.o [1]
emAfGetManufacturerCodeForCluster
                        0x00004309    0x16  Code  Gb  attribute-storage.o [1]
emAfGetPacketBufferFreeCount
                        0x00000af7     0x6  Code  Gb  af-main-soc.o [1]
emAfGetPacketBufferTotalCount
                        0x00000afd     0x4  Code  Gb  af-main-soc.o [1]
emAfGetPageRequestMissedPacketDelayMs
                        0x00023f1b     0x4  Code  Gb  ota-client-page-request.o [32]
emAfHandlingPageRequestClient
                        0x00023f09     0x4  Code  Gb  ota-client-page-request.o [32]
emAfIncomingMessageHandler
                        0x00003bf3    0x82  Code  Gb  af-main-common.o [1]
emAfInit                0x00004975    0x12  Code  Gb  afv2-bookkeeping.o [1]
emAfInitEvents          0x0000642d    0x14  Code  Gb  af-event.o [1]
emAfInitPageRequestClient
                        0x00023f05     0x4  Code  Gb  ota-client-page-request.o [32]
emAfInitializeMessageSentCallbackArray
                        0x0000384f    0x20  Code  Gb  af-main-common.o [1]
emAfInitializeNetworkIndexStack
                        0x00003769    0x10  Code  Gb  multi-network.o [1]
emAfIsEepromInitialized
                        0x00020ae3     0x6  Code  Gb  eeprom.o [13]
emAfLoadAttributeDefaults
                        0x000046c9   0x134  Code  Gb  attribute-storage.o [1]
emAfLoadAttributesFromTokens
                        0x00004835    0x7e  Code  Gb  attribute-storage.o [1]
emAfMatchAttribute      0x0000434d    0x26  Code  Gb  attribute-storage.o [1]
emAfMatchCluster        0x0000431f    0x2e  Code  Gb  attribute-storage.o [1]
emAfMessageSentHandler  0x00003cd3    0x82  Code  Gb  af-main-common.o [1]
emAfMfglibEnableMfglib  0x00022911    0x1a  Code  Gb  manufacturing-library-cli.o [27]
emAfMfglibPrintcalData  0x0002292b     0x2  Code  Gb  manufacturing-library-cli.o [27]
emAfMfglibProgramEuiCommand
                        0x000228f7    0x1a  Code  Gb  manufacturing-library-cli.o [27]
emAfMfglibSendCommand   0x000226f7    0x54  Code  Gb  manufacturing-library-cli.o [27]
emAfMfglibSendMessageCommand
                        0x0002274b    0x2e  Code  Gb  manufacturing-library-cli.o [27]
emAfMfglibSetChannelCommand
                        0x00022829    0x18  Code  Gb  manufacturing-library-cli.o [27]
emAfMfglibSetOptions    0x0002292d    0x18  Code  Gb  manufacturing-library-cli.o [27]
emAfMfglibSetPowerAndModeCommand
                        0x00022841    0x20  Code  Gb  manufacturing-library-cli.o [27]
emAfMfglibSleepCommand  0x000228bf    0x38  Code  Gb  manufacturing-library-cli.o [27]
emAfMfglibStartCommand  0x00022647    0x12  Code  Gb  manufacturing-library-cli.o [27]
emAfMfglibStatusCommand
                        0x0002278f    0x94  Code  Gb  manufacturing-library-cli.o [27]
emAfMfglibStopCommand   0x0002267f     0x2  Code  Gb  manufacturing-library-cli.o [27]
emAfMfglibStreamStartCommand
                        0x000226c3    0x1a  Code  Gb  manufacturing-library-cli.o [27]
emAfMfglibStreamStopCommand
                        0x000226dd    0x1a  Code  Gb  manufacturing-library-cli.o [27]
emAfMfglibSynoffsetCommand
                        0x0002289b    0x24  Code  Gb  manufacturing-library-cli.o [27]
emAfMfglibTestModCalCommand
                        0x00022869    0x2c  Code  Gb  manufacturing-library-cli.o [27]
emAfMfglibToneStartCommand
                        0x00022681    0x1a  Code  Gb  manufacturing-library-cli.o [27]
emAfMfglibToneStopCommand
                        0x0002269b    0x1a  Code  Gb  manufacturing-library-cli.o [27]
emAfNetworkInit         0x00003e27    0x3a  Code  Gb  af-main-common.o [1]
emAfNetworkSteeringPluginName
                        0x0002d340    0x10  Data  Gb  network-steering.o [29]
emAfNetworkTypes        0x00031bd7     0x1  Data  Gb  attribute-storage.o [1]
emAfNextMissedBlockRequestOffset
                        0x00023f13     0x4  Code  Gb  ota-client-page-request.o [32]
emAfNoteReceivedBlockForPageRequestClient
                        0x00023f0f     0x4  Code  Gb  ota-client-page-request.o [32]
emAfOtaClientPrintState
                        0x00015371     0x2  Code  Gb  ota-client.o [32]
emAfOtaClientServiceDiscoveryCallback
                        0x0001538f    0x5a  Code  Gb  ota-client.o [32]
emAfOtaClientStop       0x0001534d    0x24  Code  Gb  ota-client.o [32]
emAfOtaClientStopDownloadPercentage
                        0x2003e3c5     0x1  Data  Gb  ota-client.o [32]
emAfOtaFindImageIdByIndex
                        0x00029cb7    0x4c  Code  Gb  ota-storage-common-cli.o [35]
emAfOtaImageDelete      0x00029d03    0x26  Code  Gb  ota-storage-common-cli.o [35]
emAfOtaImageSignatureVerify
                        0x000246bd     0x4  Code  Gb  ota-client-signature-verify.o [32]
emAfOtaMinMessageLengths
                        0x0002cd5c     0xc  Data  Gb  ota-common.o [34]
emAfOtaParseImageIdFromMessage
                        0x00023f25    0x3a  Code  Gb  ota-common.o [34]
emAfOtaPrintAllImages   0x00029c61    0x56  Code  Gb  ota-storage-common-cli.o [35]
emAfOtaReloadStorageDevice
                        0x00029d29     0x4  Code  Gb  ota-storage-common-cli.o [35]
emAfOtaStorageCheckDownloadMetaData
                        0x000245cb    0x26  Code  Gb  ota-storage-eeprom.o [37]
emAfOtaStorageDataPrint
                        0x00029d2d    0x68  Code  Gb  ota-storage-common-cli.o [35]
emAfOtaStorageDriverGetRealOffset
                        0x00024527    0x32  Code  Gb  ota-storage-eeprom.o [37]
emAfOtaStorageDriverInfoPrint
                        0x000246af     0xe  Code  Gb  ota-storage-eeprom.o [37]
emAfOtaStorageEepromInit
                        0x000240fb    0x70  Code  Gb  ota-storage-eeprom-page-erase.o [37]
emAfOtaStorageGetHeaderLengthAndImageSize
                        0x00024351    0x24  Code  Gb  ota-storage-common.o [35]
emAfOtaStorageGetImageIdFromHeader
                        0x00024315    0x3c  Code  Gb  ota-storage-common.o [35]
emAfOtaStorageGetSlot   0x00024697     0x6  Code  Gb  ota-storage-eeprom.o [37]
emAfOtaStorageGetTagOffsetAndSize
                        0x00024375    0x76  Code  Gb  ota-storage-common.o [35]
emAfOtaStorageInfoPrint
                        0x00023e09     0x4  Code  Gb  ota-storage-simple.o [36]
emAfOtaStorageReadAllTagInfo
                        0x000243eb    0x98  Code  Gb  ota-storage-common.o [35]
emAfOtaStorageReadInt32uFromEeprom
                        0x0002449d    0x28  Code  Gb  ota-storage-eeprom.o [37]
emAfOtaStorageWriteDownloadMetaData
                        0x000245f1    0x14  Code  Gb  ota-storage-eeprom.o [37]
emAfOtaStorageWriteInt32uToEeprom
                        0x000244c5    0x32  Code  Gb  ota-storage-eeprom.o [37]
emAfPageRequestTimerExpired
                        0x00023f0d     0x2  Code  Gb  ota-client-page-request.o [32]
emAfParseAndPrintVersion
                        0x00003ec9    0x6e  Code  Gb  af-main-common.o [1]
emAfPermitJoin          0x00003b7d    0x2c  Code  Gb  af-main-common.o [1]
emAfPluginConfigurationServerLocked
                        0x000101e1    0x18  Code  Gb  configuration-server.o [10]
emAfPluginConfigurationServerReadTokenDataFromCreator
                        0x00010433    0xae  Code  Gb  configuration-server.o [10]
emAfPluginNetworkSteeringClearStoredPanIds
                        0x0001016d    0x1c  Code  Gb  network-steering-soc.o [29]
emAfPluginNetworkSteeringCurrentChannel
                        0x2003feff     0x1  Data  Gb  network-steering.o [29]
emAfPluginNetworkSteeringGetMaxPossiblePanIds
                        0x00010169     0x4  Code  Gb  network-steering-soc.o [29]
emAfPluginNetworkSteeringGetStoredPanIdPointer
                        0x00010189    0x4a  Code  Gb  network-steering-soc.o [29]
emAfPluginNetworkSteeringJoinAttempts
                        0x2003ff01     0x1  Data  Gb  network-steering.o [29]
emAfPluginNetworkSteeringOptionsMask
                        0x2003ff02     0x1  Data  Gb  network-steering.o [29]
emAfPluginNetworkSteeringPanIdIndex
                        0x2003fefe     0x1  Data  Gb  network-steering.o [29]
emAfPluginNetworkSteeringPrimaryChannelMask
                        0x2003df6c     0x4  Data  Gb  network-steering.o [29]
emAfPluginNetworkSteeringSecondaryChannelMask
                        0x2003df70     0x4  Data  Gb  network-steering.o [29]
emAfPluginNetworkSteeringState
                        0x2003fefa     0x1  Data  Gb  network-steering.o [29]
emAfPluginNetworkSteeringStateNames
                        0x2003df48    0x24  Data  Gb  network-steering.o [29]
emAfPluginNetworkSteeringTotalBeacons
                        0x2003ff00     0x1  Data  Gb  network-steering.o [29]
emAfPluginReportVolatileData
                        0x2003e4a8   0x120  Data  Gb  reporting.o [38]
emAfPluginReportingAddEntry
                        0x000218fb    0x44  Code  Gb  reporting.o [38]
emAfPluginReportingConditionallyAddReportingEntry
                        0x00021c79    0x14  Code  Gb  reporting.o [38]
emAfPluginReportingDoEntriesMatch
                        0x000218b1    0x4a  Code  Gb  reporting.o [38]
emAfPluginReportingGetEntry
                        0x000212ef    0x14  Code  Gb  reporting.o [38]
emAfPluginReportingSetEntry
                        0x00021303     0xc  Code  Gb  reporting.o [38]
emAfPollCompleteHandler
                        0x000246e5    0x70  Code  Gb  polling-common.o [18]
emAfPollingStates       0x2003eb24     0x8  Data  Gb  polling-common.o [18]
emAfPreCommandReceived  0x0000499f     0x4  Code  Gb  afv2-bookkeeping.o [1]
emAfPreZDOMessageReceived
                        0x000049a3     0x4  Code  Gb  afv2-bookkeeping.o [1]
emAfPrintBuffer         0x00002c85    0x40  Code  Lc  print-formatter.o [1]
emAfPrintInternalVarArg
                        0x00002c19    0x2a  Code  Lc  print.o [1]
emAfPrintPercentageSetStartAndEnd
                        0x00023fe1    0x12  Code  Gb  ota-common.o [34]
emAfPrintPercentageUpdate
                        0x00023ff3    0x10  Code  Gb  ota-common.o [34]
emAfPrintStatus         0x00003b07    0x36  Code  Gb  af-main-common.o [1]
emAfProcessClusterSpecificCommand
                        0x000220b5    0x64  Code  Gb  process-cluster-message.o [1]
emAfProcessGlobalCommand
                        0x00022119   0x374  Code  Gb  process-global-message.o [1]
emAfProcessZdo          0x00003ba9    0x4a  Code  Gb  af-main-common.o [1]
emAfReadAttribute       0x00016429    0x3e  Code  Gb  attribute-table.o [1]
emAfReadOrWriteAttribute
                        0x00004373   0x15a  Code  Gb  attribute-storage.o [1]
emAfResetAttributes     0x0000499d     0x2  Code  Gb  afv2-bookkeeping.o [1]
emAfResponseLengthPtr   0x2003f23c     0x4  Data  Gb  client-api.o [1]
emAfRetrieveAttributeAndCraftResponse
                        0x000049a7     0x4  Code  Gb  afv2-bookkeeping.o [1]
emAfSaveAttributeToToken
                        0x000048c1    0x8a  Code  Gb  attribute-storage.o [1]
emAfSend                0x00000a41    0x8e  Code  Gb  af-main-soc.o [1]
emAfSendImageBlockRequestTest
                        0x00015ed5    0x2e  Code  Gb  ota-client.o [32]
emAfSendMatchDescriptor
                        0x000224f1    0x56  Code  Gb  service-discovery-soc.o [1]
emAfServiceDiscoveryComplete0
                        0x000138f5     0x4  Code  Gb  service-discovery-common.o [1]
emAfServiceDiscoveryEventControls
                        0x2003f35c     0x8  Data  Gb  service-discovery-common.o [1]
emAfServiceDiscoveryIncoming
                        0x00013ae1    0x78  Code  Gb  service-discovery-common.o [1]
emAfSetCryptoStatus     0x000063c3     0x6  Code  Gb  crypto-state.o [1]
emAfSetPageRequest      0x00015f03     0x6  Code  Gb  ota-client.o [32]
emAfStackStatusHandler  0x00003d63    0xb4  Code  Gb  af-main-common.o [1]
emAfStorageEepromUpdateDownloadOffset
                        0x00024215    0x4e  Code  Gb  ota-storage-eeprom-page-erase.o [37]
emAfSyncingTime         0x2003ff39     0x1  Data  Gb  process-global-message.o [1]
emAfTaskId              0x2003ff2a     0x1  Data  Gb  af-event.o [1]
emAfTestApsSecurityOverride
                        0x2003e3e3     0x1  Data  Gb  util.o [1]
emAfTick                0x00004987    0x16  Code  Gb  afv2-bookkeeping.o [1]
emAfWriteAttribute      0x000162c5   0x14a  Code  Gb  attribute-table.o [1]
emAfZclBuffer           0x2003f238     0x4  Data  Gb  client-api.o [1]
emAfZclBufferLen        0x2003fec8     0x2  Data  Gb  client-api.o [1]
emAfZigbeeKeyEstablishment
                        0x000049ab    0x16  Code  Gb  afv2-bookkeeping.o [1]
emAfZigbeeProNetworks   0x00031bb6     0x2  Data  Gb  attribute-storage.o [1]
emAgeBlacklistedIds     0x0001b507    0x22  Code  Gb  random-id.o [71]
emAgeBroadcastTable     0x0000ef3b    0x40  Code  Gb  broadcast.o [71]
emAgeChildren           0x0000f2d1   0x102  Code  Gb  child-aging.o [71]
emAgeChildrenAllNetworks
                        0x0000f3d3    0x20  Code  Gb  child-aging.o [71]
emAllNetworksInit       0x0000b0f1    0x54  Code  Gb  network.o [71]
emAllowRelay            0x2003e3ce     0x1  Data  Gb  ember-configuration.o [1]
emAmMulticastMember     0x00007651    0x44  Code  Gb  address-table.o [71]
emAmNetworkManager      0x00019f69    0x28  Code  Gb  management.o [71]
emAnyChildHasFlagsSet   0x0000d10d     0x4  Code  Gb  child-stub.o [71]
emAppZdoConfigurationFlags
                        0x2003ff34     0x1  Data  Gb  ember-configuration.o [1]
emAppendToLinkedBuffers
                        0x0000831b    0x3e  Code  Gb  packet-buffer.o [71]
emApplicationCheckIncomingQueue
                        0x00006d61    0x2e  Code  Gb  application-support.o [71]
emApplicationProcessIncoming
                        0x00006d8f   0x19e  Code  Gb  application-support.o [71]
emApplicationProcessIncomingAck
                        0x0000f535    0xf0  Code  Gb  aps-retry.o [71]
emApplicationSecurityMessageHandler
                        0x00000d71   0x1e8  Code  Gb  aps-security.o [67]
emApsBaseFrameSize      0x0000abdf    0x30  Code  Gb  zigbee-packet-header.o [71]
emApsCrypt              0x0000a797    0xe8  Code  Gb  aps-encryption.o [67]
emApsExtendedHeaderSize
                        0x0000abc5    0x1a  Code  Gb  zigbee-packet-header.o [71]
emApsFrameSize          0x0000ac0f    0x38  Code  Gb  zigbee-packet-header.o [71]
emApsFrameToApsStruct   0x0000ac67   0x128  Code  Gb  zigbee-packet-header.o [71]
emApsHeaderSize         0x0000aba5    0x20  Code  Gb  zigbee-packet-header.o [71]
emApsPurge              0x0000f483    0x32  Code  Gb  aps-retry.o [71]
emApsUnicastMessageData
                        0x2003e2ac     0x4  Data  Gb  ember-configuration.o [1]
emAreKeysAuthorizedByDefault
                        0x00009ee7     0x4  Code  Gb  cbke-crypto-engine-stub.o [51]
emAssertIsZigbeeProNetwork
                        0x00006873    0x1a  Code  Gb  ember-stack-common.o [71]
emAssociationHandler    0x00009145   0x2d4  Code  Gb  association.o [71]
emAssociationInProgress
                        0x00007f83     0x4  Code  Gb  ember-multi-network-stub.o [63]
emAssociationRequestNotSent
                        0x000094d1     0xa  Code  Gb  association.o [71]
emAssumeSymmetricLink   0x0000d531    0x22  Code  Gb  neighbor.o [71]
emAuxiliaryZdoRequestHandler
                        0x000276a9   0x8c2  Code  Gb  zigbee-device.o [71]
emAvailableMemory       0x20000000   0xf50  Data  Gb  ember-configuration.o [1]
emAvailableStackBuffer  0x2003e3e8     0x1  Data  Gb  zigbee-stack.o [71]
emBindingFlags          0x2003e2a0     0x4  Data  Gb  ember-configuration.o [1]
emBindingRemoteNode     0x2003e29c     0x4  Data  Gb  ember-configuration.o [1]
emBindingTableLibraryStatus
                        0x00031808     0x1  Data  Gb  binding-table.o [45]
emBroadcastAgeCutoffIndexes
                        0x2003f5f0     0x2  Data  Gb  broadcast.o [71]
emBroadcastHead         0x2003f5ec     0x1  Data  Gb  broadcast.o [71]
emBroadcastTable        0x2003f5f4    0x5c  Data  Gb  broadcast.o [71]
emBroadcastTableIsFull  0x0000ef7b    0x1e  Code  Gb  broadcast.o [71]
emCalculateMic          0x00009fb5   0x180  Code  Gb  crypto.o [71]
emCallCounterHandler    0x00008029     0x4  Code  Gb  ember-multi-network-stub.o [63]
emCallIncomingMessageHandler
                        0x000072ad    0xb0  Code  Gb  zigbee-dispatch.o [71]
emCallStackStatusHandler
                        0x00008025     0x4  Code  Gb  ember-multi-network-stub.o [63]
emCallZigbeeKeyEstablishmentHandler
                        0x00008021     0x4  Code  Gb  ember-multi-network-stub.o [63]
emCancelJitMessage      0x0000ec73    0x28  Code  Gb  mac-arbiter.o [71]
emCapabilityBytes       0x00031834     0x8  Data  Gb  leaf-routing-stub.o [71]
emCbke283k1DsaVerifyLibraryStatus
                        0x00031bf3     0x1  Data  Gb  cbke-crypto-engine-dsa-verify-283k1-stub.o [49]
emCbke283k1LibraryStatus
                        0x00031bee     0x1  Data  Gb  cbke-crypto-engine-283k1-stub.o [47]
emCbkeCoreLibraryStatus
                        0x00031beb     0x1  Data  Gb  cbke-crypto-engine-stub.o [51]
emCbkeDsaLibraryStatus  0x00031bf2     0x1  Data  Gb  cbke-crypto-engine-dsa-sign-stub.o [48]
emCbkeDsaVerifyLibraryStatus
                        0x00031bf4     0x1  Data  Gb  cbke-crypto-engine-dsa-verify-stub.o [50]
emCbkeIsIdle            0x00009ee1     0x4  Code  Gb  cbke-crypto-engine-stub.o [51]
emCbkeLibraryStatus     0x00031bed     0x1  Data  Gb  cbke-crypto-engine-163k1-stub.o [46]
emCbkeTick              0x00009ee5     0x2  Code  Gb  cbke-crypto-engine-stub.o [51]
emChannelChangeEvent    0x2003f658     0x8  Data  Gb  zdo-channel.o [71]
emCheckAdditionalPendingDataIsr
                        0x00018dbf     0x4  Code  Gb  mac-indirect-stub.o [71]
emCheckAvailableMemory  0x0000c749     0x2  Code  Gb  ember-configuration.o [1]
emCheckIncomingFrameCounter
                        0x0000dbcd    0x20  Code  Gb  zigbee-neighbor.o [71]
emCheckNetworkManagerId
                        0x0000eea9     0x4  Code  Gb  zll-stubs.o [72]
emCheckOrSetTrustCenterEui64
                        0x0000224b    0x42  Code  Gb  aps-keys.o [67]
emCheckRadioEvent       0x2003f660     0x8  Data  Gb  mac-phy.o [71]
emCheckRadioEventHandler
                        0x000187d7    0x14  Code  Gb  mac-phy.o [71]
emChildExtendedTimeout  0x000075cd    0x26  Code  Gb  address-table.o [71]
emChildIdTable          0x2003e274     0x4  Data  Gb  ember-configuration.o [1]
emChildInit             0x0000d107     0x2  Code  Gb  child-stub.o [71]
emChildLqi              0x2003e280     0x4  Data  Gb  ember-configuration.o [1]
emChildProcessQuality   0x0000d139     0x2  Code  Gb  child-stub.o [71]
emChildStatus           0x2003e278     0x4  Data  Gb  ember-configuration.o [1]
emChildTimers           0x2003e27c     0x4  Data  Gb  ember-configuration.o [1]
emChooseRandomNeighbor  0x0000d6f3    0x6c  Code  Gb  neighbor.o [71]
emClearSecurityData     0x000017a9    0x1a  Code  Gb  aps-security.o [67]
emClearUnicastTable     0x0001c19f     0xa  Code  Gb  unicast-table.o [71]
emCopyToNormalizedBuffers
                        0x000082b1    0x6a  Code  Gb  packet-buffer.o [71]
emCostDivision          0x0000550d     0xa  Code  Gb  phy.o [71]
emCostDivisions         0x00005518     0x4  Data  Lc  phy.o [71]
emCsmaTransmit          0x000185e1    0xa0  Code  Gb  mac-phy.o [71]
emCurrentApsStruct      0x2003f5b0     0x4  Data  Gb  zigbee-dispatch.o [71]
emCurrentBindingIndex   0x2003ff4b     0x1  Data  Gb  zigbee-dispatch.o [71]
emCurrentChannel        0x2003fd33     0x1  Data  Gb  network.o [71]
emCurrentLqi            0x2003fd31     0x1  Data  Gb  network.o [71]
emCurrentMessageStatus  0x2003f5ac     0x1  Data  Gb  zigbee-dispatch.o [71]
emCurrentNetwork        0x2003f44c     0x4  Data  Gb  ember-multi-network-stub.o [63]
emCurrentNetworkInit    0x0000b145    0x44  Code  Gb  network.o [71]
emCurrentRadioNetwork   0x2003f450     0x4  Data  Gb  ember-multi-network-stub.o [63]
emCurrentRadioNetworkEvent
                        0x2003f444     0x8  Data  Gb  ember-multi-network-stub.o [63]
emCurrentRadioNetworkHandler
                        0x00007eeb    0x24  Code  Gb  ember-multi-network-stub.o [63]
emCurrentRssi           0x2003fd32     0x1  Data  Gb  network.o [71]
emCurrentSender         0x2003f5ae     0x2  Data  Gb  zigbee-dispatch.o [71]
emCurrentSenderEui64    0x2003f5b4     0x4  Data  Gb  zigbee-dispatch.o [71]
emCurrentZdoRequestStatus
                        0x2003ff4d     0x1  Data  Gb  application-support.o [71]
emCustomMacFilterMatchList
                        0x2003fd34     0x4  Data  Gb  mac-header.o [71]
emDebugAddInitialFraming
                        0x0000e203    0x1e  Code  Gb  debug-jtag-efr32.o [12]
emDebugApiTrace         0x0000a8b1     0x6  Code  Gb  debug-extended-stub.o [53]
emDebugBinaryFormat     0x0000e549    0x10  Code  Gb  debug.o [52]
emDebugClearStats       0x0000a8ad     0x2  Code  Gb  debug-extended-stub.o [53]
emDebugInit             0x0000e0ff    0x54  Code  Gb  debug-jtag-efr32.o [12]
emDebugInternalBinaryPrintf
                        0x0000e5a9   0x14c  Code  Gb  debug.o [52]
emDebugPowerDown        0x0000e1af    0x48  Code  Gb  debug-jtag-efr32.o [12]
emDebugPowerUp          0x0000e153    0x5c  Code  Gb  debug-jtag-efr32.o [12]
emDebugProcessIncoming  0x0000e6ff    0x9e  Code  Gb  debug.o [52]
emDebugProcessIncomingFullDebugMessages
                        0x0000a8bb     0x4  Code  Gb  debug-extended-stub.o [53]
emDebugReceiveData      0x0000e2e9    0x2e  Code  Gb  debug-jtag-efr32.o [12]
emDebugReceiveTick      0x0000e4f5    0x4a  Code  Gb  debug.o [52]
emDebugResetInfo        0x0000e559    0x50  Code  Gb  debug.o [52]
emDebugRxQueue          0x2003e334     0x4  Data  Lc  debug.o [52]
emDebugShouldIgnoreTraceForType
                        0x0000a8b7     0x4  Code  Gb  debug-extended-stub.o [53]
emDebugStats            0x0000a8af     0x2  Code  Gb  debug-extended-stub.o [53]
emDecimalStringWrite    0x000105fb    0x5a  Code  Gb  ember-printf.o [15]
emDecrementPanConflictMeter
                        0x00019de9     0xe  Code  Gb  management.o [71]
emDefaultMacMaxAckRetries
                        0x2003e3f7     0x1  Data  Gb  mac-phy.o [71]
emDefaultSecurityLevel  0x2003e3db     0x1  Data  Gb  ember-configuration.o [1]
emDefaultStackProfile   0x2003e3da     0x1  Data  Gb  ember-configuration.o [1]
emDeleteRouteTableEntry
                        0x0000dee9     0x2  Code  Gb  leaf-routing-stub.o [71]
emDequePollingNetwork   0x00008013     0x4  Code  Gb  ember-multi-network-stub.o [63]
emDescriptorCapability  0x2003fee2     0x1  Data  Gb  zigbee-device.o [71]
emDetectIdConflict      0x0001b325    0xc0  Code  Gb  random-id.o [71]
emDeviceJoiningSecurityHandler
                        0x0000c7d9   0x156  Code  Gb  trust-center-util.o [67]
emDoesSecurityPolicyAllowAppKeyRequests
                        0x00009eeb     0x4  Code  Gb  cbke-crypto-engine-stub.o [51]
emDsaSignAndSendMessage
                        0x00019fb1     0x4  Code  Gb  cbke-crypto-engine-dsa-sign-stub.o [48]
emEnableApplicationCurrentNetwork
                        0x00007f75     0x2  Code  Gb  ember-multi-network-stub.o [63]
emEnableRadioNetworkSwitch
                        0x00007f69     0x2  Code  Gb  ember-multi-network-stub.o [63]
emEncryptBytes          0x0000a209    0x44  Code  Gb  crypto.o [71]
emEncryptPayload        0x0000a13d    0xcc  Code  Gb  crypto.o [71]
emEndDeviceBindLibraryStatus
                        0x00031bef     0x1  Data  Gb  end-device-bind-stub.o [55]
emEndDeviceChildCount   0x2003ff4c     0x1  Data  Gb  child-stub.o [71]
emEndDeviceTimeout      0x2003e2a4     0x4  Data  Gb  ember-configuration.o [1]
emEnhancedBeaconRequestLibraryStatus
                        0x00031bf0     0x1  Data  Gb  enhanced-beacon-request-stub.o [56]
emEraseChild            0x0000d135     0x2  Code  Gb  child-stub.o [71]
emEraseChildTable       0x0000d137     0x2  Code  Gb  child-stub.o [71]
emEraseChildTableOnJoin
                        0x2003e2ec     0x1  Data  Gb  association.o [71]
emEventControlGetRemainingMS
                        0x0000e82b    0x2a  Code  Gb  event-control.o [71]
emEventControlSetActive
                        0x0000e7fd    0x14  Code  Gb  event-control.o [71]
emEventControlSetDelayMS
                        0x0000e811    0x1a  Code  Gb  event-control.o [71]
emExtendJoinTimeout     0x0000876d    0x32  Code  Gb  association.o [71]
emFastLinkStatusCount   0x2003ff50     0x1  Data  Gb  neighbor.o [71]
emFetchInt32u           0x0000c7af    0x28  Code  Gb  byte-utilities.o [71]
emFillRouteCommandData  0x0000df93     0x4  Code  Gb  leaf-routing-stub.o [71]
emFindAddressByEui64    0x000074a5    0x82  Code  Gb  address-table.o [71]
emFindAddressByNodeId   0x00007527    0xa6  Code  Gb  address-table.o [71]
emFindBroadcastTableEntry
                        0x0000eefd     0x4  Code  Gb  broadcast.o [71]
emFindChild             0x0000d119     0x2  Code  Gb  child-stub.o [71]
emFindChildIndex        0x0000d111     0x4  Code  Gb  child-stub.o [71]
emFindMulticastBinding  0x00007be5    0x58  Code  Gb  binding-table.o [45]
emFindNeighborByEui64   0x0000d1bf    0x18  Code  Gb  neighbor.o [71]
emFindNeighborIndexByEui64
                        0x0000d1e5    0x36  Code  Gb  neighbor.o [71]
emFindOrAddNeighbor     0x0000d411    0x6e  Code  Gb  neighbor.o [71]
emFindRouteTableEntry   0x0000dee5     0x4  Code  Gb  leaf-routing-stub.o [71]
emFindTransientLinkKey  0x0000d8bd    0x50  Code  Gb  aps-keys-transient.o [67]
emFindUnicastBinding    0x00007c45    0x8c  Code  Gb  binding-table.o [45]
emFindZdoPayload        0x0001a633    0x28  Code  Gb  zigbee-device-util.o [71]
emFinishJoinFailure     0x0000890d    0x2e  Code  Gb  association.o [71]
emFirstJoin             0x2003e3fa     0x1  Data  Gb  child-handling.o [71]
emForgetBindingShortId  0x000079ad    0x42  Code  Gb  binding-table.o [45]
emForgetShortId         0x00007439    0x3a  Code  Gb  address-table.o [71]
emFragmentDelayMs       0x2003ff32     0x1  Data  Gb  ember-configuration.o [1]
emFrameCounterIndex     0x0000db39    0x24  Code  Gb  zigbee-neighbor.o [71]
emFrameCounterIndexFromEui64
                        0x0000dbfb    0x8a  Code  Gb  zigbee-neighbor.o [71]
emFrameCountersTable    0x2003e294     0x4  Data  Gb  ember-configuration.o [1]
emGetActiveAlwaysOnNetworkIndex
                        0x00007f0f    0x1a  Code  Gb  ember-multi-network-stub.o [63]
emGetActiveCoordinatorOrRouterNetworkIndex
                        0x00007f9b    0x1c  Code  Gb  ember-multi-network-stub.o [63]
emGetApplicationPayload
                        0x0000a8c1    0xa0  Code  Gb  zigbee-packet-header.o [71]
emGetApsFrameCounter    0x0000a48b     0x2  Code  Gb  aps-encryption.o [67]
emGetCurrentNetworkIndex
                        0x00007f77     0x4  Code  Gb  ember-multi-network-stub.o [63]
emGetCurrentRadioNetworkIndex
                        0x00007f7b     0x4  Code  Gb  ember-multi-network-stub.o [63]
emGetKeyFromCore        0x0000e023    0x1a  Code  Gb  aes.o [71]
emGetKeyFromInstallCode
                        0x00009e71    0x68  Code  Gb  install-code-tokens.o [59]
emGetKeyTableEntry      0x0000decb     0x4  Code  Gb  aps-keys-full-stub.o [68]
emGetLinkKey            0x0000228d   0x104  Code  Gb  aps-keys.o [67]
emGetLocalCapabilities  0x00009b25     0xc  Code  Gb  association.o [71]
emGetMacDataAddress     0x0000af3d    0x22  Code  Gb  packet-header.o [71]
emGetMacTxMode          0x0001ae9d    0x2e  Code  Gb  mac.o [71]
emGetMinRejoinPeriodMillisec
                        0x00001889     0x6  Code  Gb  aps-security.o [67]
emGetNetworkKeys        0x00001789    0x20  Code  Gb  aps-security.o [67]
emGetNetworkManagementState
                        0x00019c65    0x28  Code  Gb  management.o [71]
emGetNextScanChannel    0x0000ee87     0x6  Code  Gb  zll-stubs.o [72]
emGetNwkUpdateId        0x00019c8d    0x10  Code  Gb  management.o [71]
emGetPhyRadioChannel    0x00005441     0x8  Code  Gb  phy.o [71]
emGetPhyRadioPower      0x00005449    0x1e  Code  Gb  phy.o [71]
emGetPreconfiguredKey   0x000021bd    0x1c  Code  Gb  aps-keys.o [67]
emGetRadioNodeId        0x00007fdf     0x8  Code  Gb  ember-multi-network-stub.o [63]
emGetRadioPanId         0x00007fe7     0x8  Code  Gb  ember-multi-network-stub.o [63]
emGetRejoinMode         0x00001883     0x6  Code  Gb  aps-security.o [67]
emGetRouteTableEntryIndex
                        0x0000dee1     0x4  Code  Gb  leaf-routing-stub.o [71]
emGetSecurityFrameCounter
                        0x00009f35     0x2  Code  Gb  crypto.o [71]
emGetTrustCenterEui64   0x000021e5    0x3c  Code  Gb  aps-keys.o [67]
emGetTxPowerMode        0x00005755     0x8  Code  Gb  phy.o [71]
emGetZigbeeBinding      0x00007cd1    0x16  Code  Gb  binding-table.o [45]
emGetZigbeeEventNetworkIndex
                        0x00007f6d     0x4  Code  Gb  ember-multi-network-stub.o [63]
emGoToNextScanChannel   0x0000ee8d     0x4  Code  Gb  zll-stubs.o [72]
emGpIncomingMessageHandler
                        0x0001bffd     0x2  Code  Gb  gp-stub.o [57]
emGpInit                0x0001bff9     0x4  Code  Gb  gp-stub.o [57]
emGpMacFilterMatchList  0x2003fd38     0x4  Data  Gb  mac-header.o [71]
emHandleBindUnbindRequests
                        0x000296f1    0x9e  Code  Gb  zdo-binding-table.o [45]
emHandleBindingTableRequest
                        0x0002979b   0x102  Code  Gb  zdo-binding-table.o [45]
emHandleChildIdConflict
                        0x0001b413    0x3a  Code  Gb  random-id.o [71]
emHandleEndDeviceBindRequest
                        0x00028001     0x4  Code  Gb  end-device-bind-stub.o [55]
emHandleLeaveCommand    0x0000ceb7   0x100  Code  Gb  leave.o [71]
emHandleNwkUpdateRequest
                        0x0001bd39    0xe6  Code  Gb  zdo-channel.o [71]
emHandleRouteCommand    0x0000df8d     0x2  Code  Gb  leaf-routing-stub.o [71]
emHandleRouteError      0x0001c899    0x8a  Code  Gb  route-error.o [71]
emHandleSleepyRequest   0x00007149    0xe8  Code  Gb  application-support.o [71]
emHavePendingRetryMessages
                        0x0000ff37     0xa  Code  Gb  retry.o [71]
emHaveTransientLinkKeys
                        0x0000d8b1     0xc  Code  Gb  aps-keys-transient.o [67]
emHaveTrustCenterLinkKey
                        0x000023b1    0x14  Code  Gb  aps-keys.o [67]
emHeaderApsPayloadIndex
                        0x0000ac4f    0x18  Code  Gb  zigbee-packet-header.o [71]
emHeaderGetInt16u       0x0000aea5    0x12  Code  Gb  packet-header.o [71]
emHeaderGetInt8u        0x0000aedb     0xc  Code  Gb  packet-header.o [71]
emHeaderGetNetworkIndex
                        0x0000af23     0xa  Code  Gb  packet-header.o [71]
emHeaderMacInfoField    0x0000af0f     0x4  Code  Gb  packet-header.o [71]
emHeaderNetworkPayloadIndex
                        0x0000ab49    0x24  Code  Gb  zigbee-packet-header.o [71]
emHeaderSetInt16u       0x0000aeb7    0x16  Code  Gb  packet-header.o [71]
emHeaderSetInt8u        0x0000aecd     0xe  Code  Gb  packet-header.o [71]
emHeaderSetMacInfoField
                        0x0000af13     0x6  Code  Gb  packet-header.o [71]
emHeaderSetStackPrivate
                        0x0000af2d    0x10  Code  Gb  packet-header.o [71]
emHoldMessageBuffer     0x0000811d    0x1c  Code  Gb  packet-buffer.o [71]
emIeeeAddressRequest    0x0001a775     0xe  Code  Gb  zigbee-device-util.o [71]
emIeeeAddressRequestToTarget
                        0x0001a74f    0x20  Code  Gb  zigbee-device-util.o [71]
emInInitialBroadcastTimeout
                        0x2003f5ee     0x1  Data  Gb  broadcast.o [71]
emInUseAsNextHop        0x0000dedd     0x4  Code  Gb  leaf-routing-stub.o [71]
emIncomingApsFrameCounters
                        0x2003e2b0     0x4  Data  Gb  ember-configuration.o [1]
emInitEui64             0x000184a9    0x18  Code  Gb  eui64.o [71]
emInitializeAddressTable
                        0x000073ad    0x1a  Code  Gb  address-table.o [71]
emInitializeBindingTable
                        0x00007d8d    0x44  Code  Gb  binding-table.o [45]
emInitializeBroadcast   0x0000efed    0x24  Code  Gb  broadcast.o [71]
emInitializeCbke        0x0000ee79     0x2  Code  Gb  cbke-crypto-engine-163k1-stub.o [46]
emInitializeCbke283k1   0x0000ee7f     0x2  Code  Gb  cbke-crypto-engine-283k1-stub.o [47]
emInitializeIdAssignment
                        0x0001b21d    0x5a  Code  Gb  random-id.o [71]
emInitializeRouteTableEntry
                        0x0000ded9     0x2  Code  Gb  leaf-routing-stub.o [71]
emInitializeTableRouting
                        0x0000dedb     0x2  Code  Gb  leaf-routing-stub.o [71]
emInitializeTrustCenterSecurity
                        0x000017cb    0x1a  Code  Gb  aps-security.o [67]
emInstallCodeLibraryStatus
                        0x00031bec     0x1  Data  Gb  install-code-tokens.o [59]
emIsBlacklistedId       0x0001b4cd    0x3a  Code  Gb  random-id.o [71]
emIsBufferSizeOk        0x0000a9c9    0x12  Code  Gb  zigbee-packet-header.o [71]
emIsConcentrator        0x0000def5     0x4  Code  Gb  leaf-routing-stub.o [71]
emIsCurrentNetworkStackEmpty
                        0x00007f71     0x4  Code  Gb  ember-multi-network-stub.o [63]
emIsEndDeviceChild      0x0000d12b     0x4  Code  Gb  child-stub.o [71]
emIsGpIdConflict        0x0001c001     0x4  Code  Gb  gp-stub.o [57]
emIsInUnicastTable      0x0001c151    0x2a  Code  Gb  unicast-table.o [71]
emIsMacIdle             0x0001ae61     0xc  Code  Gb  mac.o [71]
emIsMobileJoinRequest   0x0000c5f3    0x4e  Code  Lc  network.o [71]
emIsNetworkAlwaysOn     0x00007f41    0x20  Code  Gb  ember-multi-network-stub.o [63]
emIsNetworkJoined       0x00007f29    0x18  Code  Gb  ember-multi-network-stub.o [63]
emIsNodeInBroadcastTable
                        0x0000ef01    0x10  Code  Gb  broadcast.o [71]
emIsNodeInRoutingTables
                        0x0000deeb     0x4  Code  Gb  leaf-routing-stub.o [71]
emIsNullKey             0x000017c3     0x8  Code  Gb  aps-security.o [67]
emIsParentKeepAliveSupportKnown
                        0x0001af15     0xc  Code  Gb  child-handling.o [71]
emIsRf4ceNetwork        0x00006861    0x12  Code  Gb  ember-stack-common.o [71]
emIsSleepyChild         0x0000d127     0x4  Code  Gb  child-stub.o [71]
emIsStateJoiningOrRejoining
                        0x00006817    0x18  Code  Gb  ember-stack-common.o [71]
emIsTimeoutConfigurable
                        0x0001af93    0x10  Code  Gb  child-handling.o [71]
emIsTokenDataInitialized
                        0x0000217f    0x24  Code  Gb  aps-keys.o [67]
emIsZigbeeStateUnauthenticated
                        0x0000b191    0x1a  Code  Gb  network.o [71]
emJitTransmitComplete   0x0001c2ad    0x6c  Code  Gb  jit.o [71]
emJoinNetworkInternal   0x000089cd   0x138  Code  Gb  association.o [71]
emLeaveCommandSent      0x0000d0c5    0x42  Code  Gb  leave.o [71]
emLeaveNetworkQuietly   0x0000ce03    0x32  Code  Gb  leave.o [71]
emLinkQualityToCost     0x0000d5ed    0x1a  Code  Gb  neighbor.o [71]
emLoadKeyIntoCore       0x0000e007    0x12  Code  Gb  aes.o [71]
emLoadNetworkKey        0x0000175b    0x2e  Code  Gb  aps-security.o [67]
emLocalEui64            0x2003f5a4     0x8  Data  Gb  eui64.o [71]
emLocalRadioNodeId      0x2003e30c     0x2  Data  Lc  phy.o [71]
emLocalRadioPanId       0x2003e30e     0x2  Data  Lc  phy.o [71]
emLongIdDataPendingForDevice
                        0x00018db7     0x4  Code  Gb  mac-indirect-stub.o [71]
emLookupChildEui64ById  0x0000d12f     0x4  Code  Gb  child-stub.o [71]
emMacAssociateRequest   0x0001bc3f    0x36  Code  Gb  command.o [71]
emMacAssociateRespond   0x0001bc75    0x3e  Code  Gb  command.o [71]
emMacBeaconSequenceNumber
                        0x2003f670     0x1  Data  Gb  mac-arbiter.o [71]
emMacBuffer             0x2003e3f8     0x1  Data  Gb  mac-arbiter.o [71]
emMacCancelPoll         0x0000eabb     0xa  Code  Gb  mac-arbiter.o [71]
emMacCheckIncomingQueue
                        0x0000f26f    0x2a  Code  Gb  mac-receive.o [71]
emMacCheckRadio         0x000187af    0x28  Code  Gb  mac-phy.o [71]
emMacCurrentCommand     0x2003ff54     0x1  Data  Gb  mac-arbiter.o [71]
emMacCurrentFrameType   0x2003ff53     0x1  Data  Gb  mac-arbiter.o [71]
emMacDequeue            0x0000eac5    0x86  Code  Gb  mac-arbiter.o [71]
emMacDestinationMode    0x0000afbd    0x22  Code  Gb  packet-header.o [71]
emMacDestinationPointer
                        0x0000afe7    0x1e  Code  Gb  packet-header.o [71]
emMacFilterMatchCheck   0x0001c597   0x11e  Code  Gb  mac-header.o [71]
emMacHeaderGetInfoElementsLength
                        0x0001bcf7    0x18  Code  Gb  mac-info-element-parsing-stub.o [56]
emMacHeaderLength       0x0000af85    0x38  Code  Gb  packet-header.o [71]
emMacIncomingQueueIsEmpty
                        0x0000f299     0x6  Code  Gb  mac-receive.o [71]
emMacIndirectInit       0x00018db1     0x2  Code  Gb  mac-indirect-stub.o [71]
emMacIndirectProcessPollIsr
                        0x00018dbb     0x4  Code  Gb  mac-indirect-stub.o [71]
emMacIndirectPurge      0x00018dc7     0x2  Code  Gb  mac-indirect-stub.o [71]
emMacIndirectTransmitComplete
                        0x00018dc3     0x4  Code  Gb  mac-indirect-stub.o [71]
emMacInfoLowByte        0x0000af19     0xa  Code  Gb  packet-header.o [71]
emMacInit               0x0000ebc9    0x36  Code  Gb  mac-arbiter.o [71]
emMacIsEmpty            0x0000eb9d    0x2c  Code  Gb  mac-arbiter.o [71]
emMacKickStart          0x0001aa4d    0x34  Code  Gb  mac.o [71]
emMacMakePollCommand    0x0001bb97    0x40  Code  Gb  command.o [71]
emMacMaxAckRetries      0x2003e3f6     0x1  Data  Gb  mac-phy.o [71]
emMacParseInfoElementsInPacket
                        0x0001bcd1    0x26  Code  Gb  mac-info-element-parsing-stub.o [56]
emMacPassthroughMessageType
                        0x0001c52f    0x68  Code  Gb  mac-header.o [71]
emMacPermitAssn         0x2003ff57     0x1  Data  Gb  command.o [71]
emMacPrepareTransmitBuffer
                        0x0001acd5   0x18c  Code  Gb  mac.o [71]
emMacReallySuspendTransmission
                        0x0000eb4b    0x52  Code  Gb  mac-arbiter.o [71]
emMacRequestPoll        0x0000ea9f    0x1c  Code  Gb  mac-arbiter.o [71]
emMacRetries            0x2003ff52     0x1  Data  Gb  mac-phy.o [71]
emMacScanDwell          0x0001ac93    0x3a  Code  Gb  mac.o [71]
emMacScanEnd            0x0001ac4f    0x3a  Code  Gb  mac.o [71]
emMacScanType           0x2003e3e9     0x1  Data  Gb  scan.o [71]
emMacSendBeaconRequest  0x0001bb6b    0x16  Code  Gb  command.o [71]
emMacSendCoordinatorRealignment
                        0x0001bbd7    0x68  Code  Gb  command.o [71]
emMacSendMessage        0x0001b999    0x24  Code  Gb  command.o [71]
emMacSendMessageWithInfoElement
                        0x0001b9bd   0x194  Code  Gb  command.o [71]
emMacSendOrphanNotification
                        0x0001bb51    0x1a  Code  Gb  command.o [71]
emMacSetIdleMode        0x0001ae6d    0x30  Code  Gb  mac.o [71]
emMacShortDestination   0x0000b005     0x8  Code  Gb  packet-header.o [71]
emMacShortSource        0x0000b06d     0x6  Code  Gb  packet-header.o [71]
emMacShutdownCallback   0x2003f67c     0x4  Data  Gb  mac-arbiter.o [71]
emMacSourceMode         0x0000b00d    0x22  Code  Gb  packet-header.o [71]
emMacSourcePointer      0x0000b02f    0x3e  Code  Gb  packet-header.o [71]
emMacState              0x2003f680     0x1  Data  Gb  mac.o [71]
emMacSubmit             0x0000ea35    0x6a  Code  Gb  mac-arbiter.o [71]
emMacSubmitIndirect     0x00018db3     0x4  Code  Gb  mac-indirect-stub.o [71]
emMacTimerEvent         0x2003f684     0x8  Data  Gb  mac.o [71]
emMacTimerEventHandler  0x0001aa81   0x1a8  Code  Gb  mac.o [71]
emMacToNetworkQueue     0x2003e340     0x4  Data  Gb  mac-arbiter.o [71]
emMacTransmitCompleteCallback
                        0x0000bfc5    0xbc  Code  Gb  network.o [71]
emMacTransmitCompleteHandler
                        0x0000ec9b    0x1c  Code  Gb  mac-arbiter.o [71]
emMacTransmitCompleteIsr
                        0x0000ebff    0x6a  Code  Gb  mac-arbiter.o [71]
emMacTxMode             0x2003ff55     0x1  Data  Gb  mac.o [71]
emMacTxOptions          0x2003f682     0x1  Data  Gb  mac.o [71]
emMakeApsUnicast        0x00006b09    0x60  Code  Gb  application-support.o [71]
emMakeBroadcastBitmask  0x0000d573    0x50  Code  Gb  neighbor.o [71]
emMakeHeader            0x0000b07b    0x54  Code  Gb  packet-header.o [71]
emMakeMessage           0x000084f7    0x10  Code  Gb  packet-buffer.o [71]
emMakeMessageUsingVaList
                        0x000084c1    0x36  Code  Gb  packet-buffer.o [71]
emMakeNetworkStatusMessage
                        0x0001c86d    0x2c  Code  Gb  route-error.o [71]
emMakeStackJitMessage   0x0001c239    0x74  Code  Gb  jit.o [71]
emMakeZigbeeCommandHeader
                        0x0000ab0b    0x3e  Code  Gb  zigbee-packet-header.o [71]
emMakeZigbeeHeader      0x0000a9f5   0x116  Code  Gb  zigbee-packet-header.o [71]
emManufacturerCode      0x2003e3b4     0x2  Data  Gb  zigbee-device.o [71]
emMapTimeoutToTable     0x0001af21    0x28  Code  Gb  child-handling.o [71]
emMarkTaskActive        0x0000e9f1     0xe  Code  Gb  event-control.o [71]
emMaxApsUnicastMessages
                        0x2003e3d7     0x1  Data  Gb  ember-configuration.o [1]
emMaxEndDeviceChildren  0x2003e3dc     0x1  Data  Gb  ember-configuration.o [1]
emMaxHops               0x2003e3dd     0x1  Data  Gb  ember-configuration.o [1]
emMaxPhyToMacQueueLength
                        0x2003e338     0x2  Data  Gb  mac-receive.o [71]
emMaximumApsPayloadWithOptions
                        0x000070c9    0x18  Code  Gb  application-support.o [71]
emMaximumIncomingTransferSize
                        0x2003e3b8     0x2  Data  Gb  zigbee-device.o [71]
emMaximumOutgoingTransferSize
                        0x2003e3ba     0x2  Data  Gb  zigbee-device.o [71]
emMaybeWakeupApsRetry   0x0000f629    0x22  Code  Gb  aps-retry.o [71]
emMemoryByteCompare     0x000067e7    0x1e  Code  Gb  ember-stack-common.o [71]
emMessageBufferLengths  0x2003e264     0x4  Data  Gb  ember-configuration.o [1]
emMessageBufferQueueAdd
                        0x00008661    0x2a  Code  Gb  packet-buffer.o [71]
emMessageBufferQueueIsEmpty
                        0x000086d9     0xe  Code  Gb  packet-buffer.o [71]
emMessageBufferQueuePurge
                        0x000086e7    0x16  Code  Gb  packet-buffer.o [71]
emMessageBufferQueueRemoveHead
                        0x0000868b    0x2c  Code  Gb  packet-buffer.o [71]
emMessageBufferReferenceCounts
                        0x2003e268     0x4  Data  Gb  ember-configuration.o [1]
emMfgSecurityConfigModifyKey
                        0x00010135    0x34  Code  Gb  security-config-mfg-3xx.o [67]
emMfglibMode            0x2003f4c7     0x1  Data  Gb  phy.o [71]
emMfglibRxCallback      0x2003f66c     0x4  Data  Gb  mac-receive.o [71]
emMfglibTransmitComplete
                        0x2003f4c8     0x1  Data  Gb  phy.o [71]
emModifySecurityState   0x00002127     0x6  Code  Gb  aps-keys.o [67]
emMsSinceLastSuccessfulPoll
                        0x0000f40b     0x8  Code  Gb  child-aging.o [71]
emMultiNetworkLibraryStatus
                        0x00031be7     0x1  Data  Gb  ember-multi-network-stub.o [63]
emNcpLibraryStatus      0x00031be9     0x1  Data  Wk  ember-library.o [71]
emNeedsFurtherTransmissions
                        0x0000c5a5    0x3e  Code  Gb  network.o [71]
emNeighborCost          0x0000d5c3    0x2a  Code  Gb  neighbor.o [71]
emNeighborData          0x2003e290     0x4  Data  Gb  ember-configuration.o [1]
emNeighborEntryIncomingCost
                        0x0000d607     0x6  Code  Gb  neighbor.o [71]
emNeighborEntryIndex    0x0000d21b    0x14  Code  Gb  neighbor.o [71]
emNeighborEntrySetAge   0x0000d6bd     0xe  Code  Gb  neighbor.o [71]
emNeighborEntrySetOutgoingCost
                        0x0000d645     0xc  Code  Gb  neighbor.o [71]
emNeighborEvent         0x2003f5d4     0x8  Data  Gb  neighbor.o [71]
emNeighborEventHandler  0x0000d651    0x6c  Code  Gb  neighbor.o [71]
emNeighborExchangeEvent
                        0x2003f5c8     0x8  Data  Gb  leaf-routing-stub.o [71]
emNeighborExchangeEventHandler
                        0x0000dfa7     0x2  Code  Gb  leaf-routing-stub.o [71]
emNeighborFindEntry     0x0000d22f    0x1e  Code  Gb  neighbor.o [71]
emNeighborFirstCurrentKeyUse
                        0x0000dca3    0x42  Code  Gb  zigbee-neighbor.o [71]
emNeighborIdConflict    0x0001b3ed    0x26  Code  Gb  random-id.o [71]
emNeighborInit          0x0000d16b    0x20  Code  Gb  neighbor.o [71]
emNeighborProcessQuality
                        0x0000d13d    0x2e  Code  Gb  neighbor.o [71]
emNetworkAddressRequest
                        0x0001a83f    0x1c  Code  Gb  zigbee-device-util.o [71]
emNetworkCheckIncomingQueue
                        0x0000b733    0x4e  Code  Gb  network.o [71]
emNetworkDescriptor     0x2003e28c     0x4  Data  Gb  ember-configuration.o [1]
emNetworkDescriptorInit
                        0x00007e1d    0x7a  Code  Gb  ember-multi-network-stub.o [63]
emNetworkEncrypt        0x0000b527    0x78  Code  Gb  network.o [71]
emNetworkManagementEvent
                        0x2003f710     0x8  Data  Gb  management.o [71]
emNetworkManagementEventHandler
                        0x00019df7    0x5e  Code  Gb  management.o [71]
emNetworkManagementInit
                        0x00019c55    0x10  Code  Gb  management.o [71]
emNetworkProcessIncoming
                        0x0000b781   0x15e  Code  Gb  network.o [71]
emNetworkSend           0x0000b1ab    0x28  Code  Gb  network.o [71]
emNetworkSendBroadcast  0x0000b1d3    0x88  Code  Gb  network.o [71]
emNetworkSendUnicast    0x0000b289   0x1e6  Code  Gb  network.o [71]
emNetworkSubmitUnicast  0x0000b49d     0x2  Code  Gb  network.o [71]
emNetworkTimeoutRequestEvent
                        0x2003f71c     0x8  Data  Gb  child-handling.o [71]
emNetworkTimeoutRequestEventHandler
                        0x0001b0ed    0x3a  Code  Gb  child-handling.o [71]
emNetworkToApplicationQueue
                        0x2003e330     0x4  Data  Gb  network.o [71]
emNetworkTransmitComplete
                        0x0000c099   0x242  Code  Gb  network.o [71]
emNetworkTransmitCompleteCallback
                        0x0000f977    0x8e  Code  Gb  aps-retry.o [71]
emNewBroadcastEntryThreshold
                        0x2003f5ef     0x1  Data  Gb  broadcast.o [71]
emNextApsFrameCounter   0x0000a495    0x1a  Code  Gb  aps-encryption.o [67]
emNormalizeBufferIndex  0x00008451    0x18  Code  Gb  packet-buffer.o [71]
emNoteIncomingFrameCounter
                        0x0000dbed     0xe  Code  Gb  zigbee-neighbor.o [71]
emNoteJoinAuthenticated
                        0x0000881d    0x48  Code  Gb  association.o [71]
emNoteJoinFailureForTimeout
                        0x00008733     0x8  Code  Gb  association.o [71]
emNoteJoiningChange     0x000094e9    0x18  Code  Gb  association.o [71]
emNoteLinkKeyRequest    0x0000873b    0x20  Code  Gb  association.o [71]
emNoteNodeTypeChange    0x0000801f     0x2  Code  Gb  ember-multi-network-stub.o [63]
emNoteSleepyDeviceInKeyTable
                        0x0000ded7     0x2  Code  Gb  aps-keys-full-stub.o [68]
emNoteSuccessfulPoll    0x0000f3f3    0x18  Code  Gb  child-aging.o [71]
emNoteUnicastRetryEvent
                        0x0000f4b5    0x22  Code  Gb  aps-retry.o [71]
emOverrideTrustCenterEui64
                        0x00002247     0x4  Code  Gb  aps-keys.o [67]
emPacketBufferCount     0x2003e3cc     0x1  Data  Gb  ember-configuration.o [1]
emPacketBufferData      0x2003e260     0x4  Data  Gb  ember-configuration.o [1]
emPacketBufferFreeCount
                        0x2003e3cd     0x1  Data  Gb  ember-configuration.o [1]
emPacketBufferLinks     0x2003e26c     0x4  Data  Gb  ember-configuration.o [1]
emPacketBufferQueueLinks
                        0x2003e270     0x4  Data  Gb  ember-configuration.o [1]
emPacketHeaderContents  0x0000aefb    0x14  Code  Gb  packet-header.o [71]
emPacketHeaderOverhead  0x0000aee7    0x14  Code  Gb  packet-header.o [71]
emPacketHeaderPayload   0x000081a5    0x1a  Code  Gb  packet-buffer.o [71]
emPacketReceivedInternalIsrCallback
                        0x0000f015    0x74  Code  Gb  mac-receive.o [71]
emPacketValidateCheck   0x0001a27b    0x46  Code  Gb  packet-validate.o [64]
emPacketValidateLibrary
                        0x00031bf1     0x1  Data  Gb  packet-validate.o [64]
emPacketValidateLibraryInfo
                        0x00019fb5     0x6  Code  Gb  packet-validate.o [64]
emPanIdConflictReportThreshold
                        0x2003e3e1     0x1  Data  Gb  ember-configuration.o [1]
emParentKeepAliveSupportUnknown
                        0x0001af0d     0x8  Code  Gb  child-handling.o [71]
emPhyBandConfig2400MHz  0x000318b0    0x24  Data  Gb  radio_config_em3xxx_2.4GHz.o [71]
emPhyBands              0x00031868     0x4  Data  Lc  phy-config-MHz.o [71]
emPhyCcaLbtConfigArray  0x000062f0     0x1  Data  Gb  phy.o [71]
emPhyConfigEfr          0x0003186c    0x10  Data  Gb  phy-config-MHz.o [71]
emPhyCurrentBandConfig  0x2003f4d0     0x4  Data  Gb  phy.o [71]
emPhyDcAckSent          0x00017497     0x2  Code  Gb  duty-cycle-stub.o [71]
emPhyDcExtendedStatus   0x2003ff56     0x1  Data  Lc  duty-cycle-stub.o [71]
emPhyDcGetPktMode       0x0001748d     0x4  Code  Gb  duty-cycle-stub.o [71]
emPhyDcSendPktAsap      0x00017491     0x4  Code  Gb  duty-cycle-stub.o [71]
emPhyDcSendPktFailed    0x00017495     0x2  Code  Gb  duty-cycle-stub.o [71]
emPhyDcSetExtendedStatus
                        0x0001749b     0x6  Code  Gb  duty-cycle-stub.o [71]
emPhyDcTick             0x00017499     0x2  Code  Gb  duty-cycle-stub.o [71]
emPhyDcTxEvent          0x2003f730     0x8  Data  Gb  duty-cycle-stub.o [71]
emPhyDcTxEventHandler   0x000174a9     0x2  Code  Gb  duty-cycle-stub.o [71]
emPhyGetChannelPageForChannel
                        0x00005329     0xa  Code  Gb  phy.o [71]
emPhyGetPhyChannel      0x000054d5    0x38  Code  Gb  phy.o [71]
emPhySetCoordinator     0x00005bd5    0x20  Code  Gb  phy.o [71]
emPhySetEui64           0x00005baf    0x20  Code  Gb  phy.o [71]
emPhyTick               0x0000621f    0x5c  Code  Gb  phy.o [71]
emPhyToMacQueue         0x2003e33c     0x4  Data  Gb  mac-receive.o [71]
emPickNewId             0x0001b2d3    0x52  Code  Gb  random-id.o [71]
emPickRandomId          0x0001b277    0x5c  Code  Gb  random-id.o [71]
emPollPending           0x00008017     0x4  Code  Gb  ember-multi-network-stub.o [63]
emPowerDescriptor       0x2003e3b6     0x2  Data  Gb  zigbee-device.o [71]
emPrepareRetryEntryForSubmission
                        0x0000c2f5   0x290  Code  Gb  network.o [71]
emPrintfInternal        0x00010655   0x1c6  Code  Gb  ember-printf.o [15]
emProcessApplicationLinkKey
                        0x0000ded3     0x4  Code  Gb  aps-keys-full-stub.o [68]
emProcessIncomingBeacon
                        0x0000950d   0x23a  Code  Gb  association.o [71]
emProcessIncomingBroadcast
                        0x0000bd63   0x112  Code  Gb  network.o [71]
emProcessJoinRequest    0x00008e43   0x186  Code  Gb  association.o [71]
emProcessJoinResponse   0x00008fdb   0x15c  Code  Gb  association.o [71]
emProcessManagementCommand
                        0x00019cd5   0x114  Code  Gb  management.o [71]
emProcessNeighborExchange
                        0x0000dfa1     0x2  Code  Gb  leaf-routing-stub.o [71]
emProcessNetworkHeader  0x0000c641    0x8c  Code  Gb  network.o [71]
emProcessNetworkTimeoutRequest
                        0x0001b039    0x2c  Code  Gb  child-handling.o [71]
emProcessNetworkTimeoutResponse
                        0x0001b0a3    0x3e  Code  Gb  child-handling.o [71]
emProcessRequestKey     0x0000c9e1    0xc0  Code  Gb  trust-center-util.o [67]
emProcessTransmitState  0x00018819     0x4  Code  Gb  mac-phy.o [71]
emProcessVerifyKey      0x0000d9a9    0xba  Code  Gb  aps-keys-transient.o [67]
emProcessZllInterpanStackMessage
                        0x0000ee97     0x4  Code  Gb  zll-stubs.o [72]
emRadioAddressMatchingEnabled
                        0x00005b67     0x8  Code  Gb  phy.o [71]
emRadioAlwaysUseZeroBackoff
                        0x2003f4cc     0x1  Data  Gb  phy.o [71]
emRadioAutoAckEnabled   0x00005ba7     0x8  Code  Gb  phy.o [71]
emRadioCalculateLinkQuality
                        0x0000551f     0x4  Code  Gb  phy.o [71]
emRadioChannel          0x2003e2f0     0x1  Data  Lc  phy.o [71]
emRadioChannelPageInUse
                        0x2003f4c5     0x1  Data  Lc  phy.o [71]
emRadioChannelPageToUse
                        0x2003ff49     0x1  Data  Lc  phy.o [71]
emRadioCheckRadio       0x0000518d     0xe  Code  Gb  phy.o [71]
emRadioConvertRssiToEd  0x00005523    0x22  Code  Gb  phy.o [71]
emRadioEnableAddressMatching
                        0x00005b33    0x2c  Code  Gb  phy.o [71]
emRadioEnableAutoAck    0x00005b6f    0x2e  Code  Gb  phy.o [71]
emRadioEnablePacketTrace
                        0x00005cf9    0x18  Code  Gb  phy.o [71]
emRadioEnablePta        0x00005959    0x5e  Code  Gb  phy.o [71]
emRadioEnableReceiveCrc
                        0x00005c55    0x22  Code  Gb  phy.o [71]
emRadioEnableSfdRecvNotification
                        0x00006285    0x24  Code  Gb  phy.o [71]
emRadioEnergyDetection  0x00005b1b    0x18  Code  Gb  phy.o [71]
emRadioGetEdCcaThreshold
                        0x00005d71    0x1c  Code  Gb  phy.o [71]
emRadioGetIdleMode      0x00005907     0x8  Code  Gb  phy.o [71]
emRadioGetNodeId        0x00005c17     0x8  Code  Gb  phy.o [71]
emRadioGetPanId         0x00005c1f     0x8  Code  Gb  phy.o [71]
emRadioGetPowerStatus   0x000058c9     0x8  Code  Gb  phy.o [71]
emRadioGetRandomNumbers
                        0x00005177    0x16  Code  Gb  phy.o [71]
emRadioHoldOffInternalIsr
                        0x000051c5    0x4a  Code  Lc  phy.o [71]
emRadioHoldOffIsActive  0x0000519b     0xc  Code  Gb  phy.o [71]
emRadioHoldOffIsr       0x0000520f     0xe  Code  Gb  phy.o [71]
emRadioInit             0x000059bd   0x14e  Code  Gb  phy.o [71]
emRadioIsReceivingFrame
                        0x0000521d    0x18  Code  Gb  phy.o [71]
emRadioLastOutgoingCommand
                        0x2003e3ec     0x1  Data  Gb  phy.o [71]
emRadioOkToIdle         0x000058e7    0x20  Code  Gb  phy.o [71]
emRadioPowerFl          0x2003e308     0x2  Data  Lc  phy.o [71]
emRadioPrepareTransmit  0x0000560b    0x76  Code  Gb  phy.o [71]
emRadioReceiveCompleteCallback
                        0x0000ecb7   0x17c  Code  Gb  mac-arbiter.o [71]
emRadioReceiveMacHeaderCallback
                        0x0001c6b5   0x15e  Code  Gb  mac-header.o [71]
emRadioSeedRandom       0x0000e4e1    0x12  Code  Gb  phy-util.o [71]
emRadioSetEdCcaThreshold
                        0x00005d11    0x54  Code  Gb  phy.o [71]
emRadioSetIdleMode      0x0000590f    0x1e  Code  Gb  phy.o [71]
emRadioSetNodeId        0x00005bf5    0x22  Code  Gb  phy.o [71]
emRadioSetPanId         0x00005c2d    0x22  Code  Gb  phy.o [71]
emRadioSetPowerStatus   0x000058d1    0x16  Code  Lc  phy.o [71]
emRadioSfdRecvIsrCallback
                        0x000062f3     0x2  Code  Wk  phy.o [71]
emRadioSleep            0x0000575d    0xa6  Code  Gb  phy.o [71]
emRadioTransmit         0x00005681    0xcc  Code  Gb  phy.o [71]
emRadioTransmitCompleteCallback
                        0x00018691    0xe2  Code  Gb  mac-phy.o [71]
emRadioTxAckIsrCallback
                        0x00018773    0x3c  Code  Gb  mac-phy.o [71]
emRadioTxPowerMode      0x2003e30a     0x2  Data  Gb  phy.o [71]
emRadioUnpackChipErrors
                        0x0000551d     0x2  Code  Gb  phy.o [71]
emRadioWakeUp           0x000058c5     0x4  Code  Gb  phy.o [71]
emReadGpTokens          0x0001bfff     0x2  Code  Gb  gp-stub.o [57]
emReadRadioTokens       0x00009a49    0x2e  Code  Gb  association.o [71]
emReadSecurityToken     0x00002143    0x3c  Code  Gb  aps-keys.o [67]
emRealECCLibraryPresent
                        0x0000ee75     0x4  Code  Gb  cbke-crypto-engine-163k1-stub.o [46]
emRealECCLibraryPresent283k1
                        0x0000ee7b     0x4  Code  Gb  cbke-crypto-engine-283k1-stub.o [47]
emReallyCopyToLinkedBuffers
                        0x00008277    0x3a  Code  Gb  packet-buffer.o [71]
emReallyGetNetworkKey   0x00001449    0x2a  Code  Gb  aps-security.o [67]
emReallySendNetworkTimeoutRequest
                        0x0001afdb    0x5e  Code  Gb  child-handling.o [71]
emReallySendRouteRequest
                        0x0000df99     0x4  Code  Gb  leaf-routing-stub.o [71]
emReallyStopScan        0x0001b6b9    0x64  Code  Lc  scan.o [71]
emReconstructDecryptedHeader
                        0x0000a961    0x38  Code  Gb  zigbee-packet-header.o [71]
emReencryptRetries      0x2003e3ee     0x1  Data  Gb  aps-retry.o [71]
emReleaseMessageBuffer  0x00008139    0x6c  Code  Gb  packet-buffer.o [71]
emRemoteModifyBinding   0x00007ce7    0x9e  Code  Gb  binding-table.o [45]
emRemoveNeighbor        0x0000d35d    0xa4  Code  Gb  neighbor.o [71]
emRemoveNeighborEui     0x0000d47f    0x40  Code  Gb  neighbor.o [71]
emRemoveTransientLinkKey
                        0x0000d921    0x60  Code  Gb  aps-keys-transient.o [67]
emReplaceNeighbor       0x0000d401    0x10  Code  Gb  neighbor.o [71]
emRequestKeyEvent       0x2003f42c     0x8  Data  Gb  aps-keys.o [67]
emRequestKeyEventHandler
                        0x000024cd    0x2c  Code  Gb  aps-keys.o [67]
emRequestKeyTimeout     0x2003ff36     0x1  Data  Gb  ember-configuration.o [1]
emRequestKeyTimeoutControl
                        0x00002495    0x1c  Code  Gb  aps-keys.o [67]
emRequestLinkKeyUpdate  0x2003ff51     0x1  Data  Gb  aps-keys-transient.o [67]
emRequireLongIdForMovedChildCheck
                        0x0000eead     0x4  Code  Gb  zll-stubs.o [72]
emResetApsFrameCounter  0x0000a4af    0x1a  Code  Gb  aps-encryption.o [67]
emResetNwkIncomingFrameCounters
                        0x0000db5d    0x24  Code  Gb  zigbee-neighbor.o [71]
emResetNwkOutgoingFrameCounter
                        0x00009f41    0x1a  Code  Gb  crypto.o [71]
emRestoreCurrentNetworkInternal
                        0x00007f81     0x2  Code  Gb  ember-multi-network-stub.o [63]
emRetryCancel           0x0000fedb    0x4c  Code  Gb  retry.o [71]
emRetryDelayEvent       0x2003f73c     0x8  Data  Gb  retry.o [71]
emRetryDelayEventHandler
                        0x00010079     0x6  Code  Gb  retry.o [71]
emRetryInit             0x0000ff69    0x20  Code  Gb  retry.o [71]
emRetryIsEmpty          0x0000ff27    0x10  Code  Gb  retry.o [71]
emRetryPurge            0x0000ff41    0x28  Code  Gb  retry.o [71]
emRetryQueue            0x2003e298     0x4  Data  Gb  ember-configuration.o [1]
emRetryQueueSize        0x2003e3d4     0x1  Data  Gb  ember-configuration.o [1]
emRetrySubmit           0x0000fe97    0x44  Code  Gb  retry.o [71]
emRetryTransmit         0x0000ff89    0x24  Code  Gb  retry.o [71]
emRetryTransmitComplete
                        0x0000ffad    0x3a  Code  Gb  retry.o [71]
emRf4ceDutyCyclingEnabled
                        0x000100a7     0x4  Code  Gb  rf4ce-stack-stubs.o [65]
emRf4ceGetChannelFromPacketMacInfo
                        0x000100b1    0x10  Code  Gb  rf4ce-stack-stubs.o [65]
emRf4ceGetHeaderField   0x00010085     0x4  Code  Gb  rf4ce-stack-stubs.o [65]
emRf4ceGetNetworkParameters
                        0x00010089     0x4  Code  Gb  rf4ce-stack-stubs.o [65]
emRf4ceGetNodeType      0x0001008d     0x4  Code  Gb  rf4ce-stack-stubs.o [65]
emRf4ceGetOutgoingPacketTxPower
                        0x000100c1    0x10  Code  Gb  rf4ce-stack-stubs.o [65]
emRf4ceIncomingBeaconHandler
                        0x0001009d     0x2  Code  Gb  rf4ce-stack-stubs.o [65]
emRf4ceIncomingPacketHandler
                        0x00010091     0x2  Code  Gb  rf4ce-stack-stubs.o [65]
emRf4ceInit             0x00010081     0x4  Code  Gb  rf4ce-stack-stubs.o [65]
emRf4ceMacPrepareTransmitBuffer
                        0x00010099     0x2  Code  Gb  rf4ce-stack-stubs.o [65]
emRf4ceNetworkOperationInProgress
                        0x000100a3     0x4  Code  Gb  rf4ce-stack-stubs.o [65]
emRf4ceNetworkSwitchHandler
                        0x0001009f     0x2  Code  Gb  rf4ce-stack-stubs.o [65]
emRf4ceOutgoingPacketTableIsEmpty
                        0x000100ab     0x4  Code  Gb  rf4ce-stack-stubs.o [65]
emRf4cePreparePacketForSubmission
                        0x00010095     0x4  Code  Gb  rf4ce-stack-stubs.o [65]
emRf4ceScanCompleteHandler
                        0x0001009b     0x2  Code  Gb  rf4ce-stack-stubs.o [65]
emRf4ceSetAllEventsInactive
                        0x000100a1     0x2  Code  Gb  rf4ce-stack-stubs.o [65]
emRf4ceStackEvents      0x00031844     0x8  Data  Gb  rf4ce-stack-stubs.o [65]
emRf4ceStackPowerUpHandler
                        0x000100af     0x2  Code  Gb  rf4ce-stack-stubs.o [65]
emRf4ceStackTask        0x2003fdc6     0x1  Data  Gb  zigbee-stack.o [71]
emRf4ceStartFromToken   0x000100d1     0x4  Code  Gb  rf4ce-stack-stubs.o [65]
emRf4ceTransmitCompleteHandler
                        0x00010093     0x2  Code  Gb  rf4ce-stack-stubs.o [65]
emRouteData             0x2003e284     0x4  Data  Gb  ember-configuration.o [1]
emRouteRecordTableGetChildFlag
                        0x0000defb     0x4  Code  Gb  leaf-routing-stub.o [71]
emRouteRecordTableSetOrClearChildFlag
                        0x0000def9     0x2  Code  Gb  leaf-routing-stub.o [71]
emRouteTableNextHop     0x0000deef     0x6  Code  Gb  leaf-routing-stub.o [71]
emRouteTableSize        0x2003e3d0     0x1  Data  Gb  ember-configuration.o [1]
emRouterNeighborTableSize
                        0x2003e3d3     0x1  Data  Gb  ember-configuration.o [1]
emScanCommandTransmitCompleteIsr
                        0x0001b8e5    0x60  Code  Gb  scan.o [71]
emScanCompleteHandler   0x0000974d   0x1a6  Code  Gb  association.o [71]
emScanEvent             0x2003f464     0x8  Data  Gb  scan.o [71]
emScanEventHandler      0x0001b71d    0xea  Code  Gb  scan.o [71]
emScanTimerIsr          0x0001b80f    0x72  Code  Gb  scan.o [71]
emScheduleNextOrphanNotificationEvent
                        0x0001b173    0x3e  Code  Gb  child-handling.o [71]
emScheduleNextPoll      0x0000801b     0x4  Code  Gb  ember-multi-network-stub.o [63]
emSecurityCoreLibraryStatus
                        0x0003183c     0x1  Data  Gb  trust-center-util.o [67]
emSecurityEui64         0x0000db81    0x4c  Code  Gb  zigbee-neighbor.o [71]
emSecurityHardwareInit  0x0000e03d     0x2  Code  Gb  aes.o [71]
emSecurityIncrementOutgoingFrameCounter
                        0x00009f0d    0x28  Code  Gb  crypto.o [71]
emSecurityInit          0x00009f5b    0x36  Code  Gb  crypto.o [71]
emSecurityLinkKeysLibraryStatus
                        0x00031bea     0x1  Data  Gb  aps-keys-full-stub.o [68]
emSecurityOkayToStartNetworkOperation
                        0x00000d2f    0x40  Code  Gb  aps-security.o [67]
emSecurityReadApsFrameCounterToken
                        0x0000a471    0x1a  Code  Gb  aps-encryption.o [67]
emSecurityReadNetworkFrameCounterToken
                        0x00009ef1    0x1c  Code  Gb  crypto.o [71]
emSendApsCommand        0x00001005   0x14a  Code  Gb  aps-security.o [67]
emSendApsMessage        0x000068a5   0x264  Code  Gb  application-support.o [71]
emSendKey               0x0000120f   0x100  Code  Gb  aps-security.o [67]
emSendMulticastsToSleepyAddress
                        0x2003ff37     0x1  Data  Gb  ember-configuration.o [1]
emSendNetworkKey        0x0000c9a9    0x26  Code  Gb  trust-center-util.o [67]
emSendNetworkTimeoutRequest
                        0x0001afc3    0x18  Code  Gb  child-handling.o [71]
emSendNetworkTimeoutResponse
                        0x0001b065    0x3e  Code  Gb  child-handling.o [71]
emSendOrphanNotificationEvent
                        0x2003f724     0x8  Data  Gb  child-handling.o [71]
emSendOrphanNotificationEventHandler
                        0x0001b127    0x4c  Code  Gb  child-handling.o [71]
emSendOurEndDeviceAnnouncement
                        0x0001a81d    0x22  Code  Gb  zigbee-device-util.o [71]
emSendPanIdConflictReport
                        0x00019f23    0x46  Code  Gb  management.o [71]
emSendParentAnnounceEvent
                        0x2003f5bc     0x8  Data  Gb  zigbee-device-util.o [71]
emSendRejoinResponse    0x00008db7    0x80  Code  Gb  association.o [71]
emSendReply             0x000070ef    0x4a  Code  Gb  application-support.o [71]
emSendReportOrUpdate    0x00019e55    0x8c  Code  Gb  management.o [71]
emSendRouteError        0x0001c831    0x3c  Code  Gb  route-error.o [71]
emSendRouteRecord       0x0000df9d     0x4  Code  Gb  leaf-routing-stub.o [71]
emSendRouteRequest      0x0000deff    0x86  Code  Gb  leaf-routing-stub.o [71]
emSendTimeoutRequest    0x0001afa3    0x20  Code  Gb  child-handling.o [71]
emSendUpdateDevice      0x000011c5    0x42  Code  Gb  aps-security.o [67]
emSendZigDevMessage     0x0001a905    0xfa  Code  Gb  zigbee-device-util.o [71]
emSetAllChildrenToAlternateKey
                        0x0000d117     0x2  Code  Gb  child-stub.o [71]
emSetAllNeighborsUsingAlternateKey
                        0x0000d6cb    0x28  Code  Gb  neighbor.o [71]
emSetAllSleepyChildFlags
                        0x0000d109     0x4  Code  Gb  child-stub.o [71]
emSetChildId            0x0000d133     0x2  Code  Gb  child-stub.o [71]
emSetCurrentNetworkInternal
                        0x00007f7f     0x2  Code  Gb  ember-multi-network-stub.o [63]
emSetCurrentRadioNetwork
                        0x00007fb7    0x22  Code  Gb  ember-multi-network-stub.o [63]
emSetEndDeviceTimeout   0x0001af57    0x3c  Code  Gb  child-handling.o [71]
emSetFirstJoin          0x0001af05     0x8  Code  Gb  child-handling.o [71]
emSetLinkedBuffersLength
                        0x00008371    0x6a  Code  Gb  packet-buffer.o [71]
emSetMacDataAddress     0x0000af5f    0x26  Code  Gb  packet-header.o [71]
emSetNeighborEui64      0x0000d60d    0x38  Code  Gb  neighbor.o [71]
emSetNeighboringDevicesUsingAlternateKey
                        0x0000dc85    0x1e  Code  Gb  zigbee-neighbor.o [71]
emSetNetworkKey         0x000013ad    0x94  Code  Gb  aps-security.o [67]
emSetNetworkManagementState
                        0x00019cb9    0x1c  Code  Gb  management.o [71]
emSetNetworkParameters  0x0000997f    0x34  Code  Gb  association.o [71]
emSetNetworkState       0x000066f5    0x7a  Code  Gb  ember-stack-common.o [71]
emSetNodeId             0x00001ee7     0x8  Code  Gb  zigbee-stack.o [71]
emSetNodeType           0x000098f3    0x3a  Code  Gb  association.o [71]
emSetNwkUpdateId        0x00019c9d    0x1c  Code  Gb  management.o [71]
emSetPacketHeaderPayload
                        0x000081bf    0x3e  Code  Gb  packet-buffer.o [71]
emSetPanId              0x00001ef7     0x8  Code  Gb  zigbee-stack.o [71]
emSetParent             0x00009b31    0x18  Code  Gb  association.o [71]
emSetPhyRadioChannel    0x00005393    0xae  Code  Gb  phy.o [71]
emSetPhyRadioPower      0x00005467     0x8  Code  Gb  phy.o [71]
emSetPhyRadioPowerFl    0x0000546f    0x66  Code  Gb  phy.o [71]
emSetRadioParameters    0x00007e97    0x54  Code  Gb  ember-multi-network-stub.o [63]
emSetSleepyBroadcast    0x0001c1b1    0x46  Code  Gb  jit.o [71]
emSetSleepyBroadcastMessageSentHandlerPending
                        0x0001c1f7    0x12  Code  Gb  jit.o [71]
emSetTrustCenterData    0x000020b9    0x6e  Code  Gb  aps-keys.o [67]
emSetTrustCenterEui64   0x00002243     0x4  Code  Gb  aps-keys.o [67]
emSetZigbeeEventNetworkIndex
                        0x00007f6b     0x2  Code  Gb  ember-multi-network-stub.o [63]
emSleepyBroadcastEvent  0x2003f74c     0x8  Data  Gb  jit.o [71]
emSleepyBroadcastEventHandler
                        0x0001c209    0x30  Code  Gb  jit.o [71]
emSleepyBroadcastHeader
                        0x2003e3fb     0x1  Data  Gb  jit.o [71]
emSourceRouteSubframeIndex
                        0x0000a999    0x30  Code  Gb  zigbee-packet-header.o [71]
emSpoofDeviceAnnouncement
                        0x0001a7f3    0x1e  Code  Gb  zigbee-device-util.o [71]
emStackEnergyScanHandler
                        0x0001be9d    0x10  Code  Gb  zdo-channel.o [71]
emStackTask             0x2003fdc5     0x1  Data  Gb  zigbee-stack.o [71]
emStackTokenPrimitive   0x0000dd13    0x8c  Code  Gb  token-cache.o [71]
emStandAloneEncryptBlock
                        0x0000e03f    0x14  Code  Gb  aes.o [71]
emStartScan             0x0001b5fd    0x78  Code  Lc  scan.o [71]
emStartTransmitStream   0x00005c89    0x1e  Code  Gb  phy.o [71]
emStartTransmitTone     0x00005cb7    0x1c  Code  Gb  phy.o [71]
emState                 0x00011f19    0xd0  Code  Lc  em_emu.o [17]
emState::cmuStatus      0x2003eb30     0x4  Data  Lc  em_emu.o [17]
emState::hfClock        0x2003ff17     0x1  Data  Lc  em_emu.o [17]
emState::vScaleStatus   0x2003ff18     0x1  Data  Lc  em_emu.o [17]
emStopScan              0x0001b675    0x44  Code  Gb  scan.o [71]
emStopTransmitStream    0x00005caf     0x8  Code  Gb  phy.o [71]
emStopTransmitTone      0x00005ce1    0x10  Code  Gb  phy.o [71]
emStoreInt32u           0x0000c793    0x1c  Code  Gb  byte-utilities.o [71]
emSupportedNetworks     0x2003e3d2     0x1  Data  Gb  ember-configuration.o [1]
emSwitchNetworkKeys     0x00001327    0x7e  Code  Gb  aps-security.o [67]
emSynthFreqOffset       0x2003f4c6     0x1  Data  Gb  phy.o [71]
emTaskCount             0x00031bda     0x1  Data  Gb  ember-configuration.o [1]
emTaskDetermineNextEvent
                        0x0000e855    0x26  Code  Lc  event-control.o [71]
emTaskEnableIdling      0x0000e9ff     0x6  Code  Gb  event-control.o [71]
emTasks                 0x2003f2c4    0x30  Data  Gb  ember-configuration.o [1]
emTrackNextEvent        0x0000e7dd    0x20  Code  Lc  event-control.o [71]
emTransientLinkKeyEventControl
                        0x2003f5dc     0x8  Data  Gb  aps-keys-transient.o [67]
emTransientLinkKeyEventHandler
                        0x0000da63    0x74  Code  Gb  aps-keys-transient.o [67]
emTreeDepth             0x2003ff58     0x1  Data  Gb  random-id.o [71]
emTrustCenterAddedAsNeighbor
                        0x000017fb    0x44  Code  Gb  aps-security.o [67]
emTrustCenterRequestKeyCleanup
                        0x0000cc9f    0x1c  Code  Gb  trust-center-util.o [67]
emUnicastTable          0x2003fd20    0x10  Data  Gb  unicast-table.o [71]
emUpdateAddressTable    0x00007473    0x32  Code  Gb  address-table.o [71]
emUpdateBindingFlags    0x00007a81    0x52  Code  Gb  binding-table.o [45]
emUpdateBindingRemoteNode
                        0x000079ef    0x86  Code  Gb  binding-table.o [45]
emUpdateBroadcastTable  0x0000ef11    0x2a  Code  Gb  broadcast.o [71]
emUpdateNeighborTable   0x0000d553    0x20  Code  Gb  neighbor.o [71]
emUpdateRouteReplyForRelaying
                        0x0000df8f     0x4  Code  Gb  leaf-routing-stub.o [71]
emUsingDefaultLinkKey   0x00001859    0x2a  Code  Gb  aps-security.o [67]
emUsingGlobalLinkKey    0x0000183f    0x1a  Code  Gb  aps-security.o [67]
emWeakestNeighborIndex  0x0000dfa3     0x4  Code  Gb  leaf-routing-stub.o [71]
emWhatISupportAsAParent
                        0x2003f72c     0x2  Data  Gb  child-handling.o [71]
emWriteHexInternal      0x000105d1    0x2a  Code  Gb  ember-printf.o [15]
emWriteNodeData         0x00009a11    0x28  Code  Gb  association.o [71]
emWriteRadioAndNetworkTokens
                        0x000099b9    0x58  Code  Gb  association.o [71]
emWriteSecurityToken    0x0000212d    0x16  Code  Gb  aps-keys.o [67]
emZigDevPrepareZdoMessage
                        0x0001a8e7    0x16  Code  Gb  zigbee-device-util.o [71]
emZigbeeApplicationEvent
                        0x2003f594     0x8  Data  Gb  aps-retry.o [71]
emZigbeeApplicationEventHandler
                        0x0000f625     0x4  Code  Gb  aps-retry.o [71]
emZigbeeAssociationEvent
                        0x2003f494     0x8  Data  Gb  association.o [71]
emZigbeeAssociationEventHandler
                        0x00009425    0xac  Code  Gb  association.o [71]
emZigbeeBeaconEvent     0x2003f4a0     0x8  Data  Gb  association.o [71]
emZigbeeChildJoinNotify
                        0x0000114f    0x2a  Code  Gb  aps-security.o [67]
emZigbeeDestinationIeeeAddress
                        0x0000ab6d    0x16  Code  Gb  zigbee-packet-header.o [71]
emZigbeeDeviceBindUnbindResponse
                        0x00028005     0x2  Code  Gb  end-device-bind-stub.o [55]
emZigbeeDeviceRequestHandler
                        0x0001a351   0x16e  Code  Gb  zigbee-device-util.o [71]
emZigbeeDeviceResponseHandler
                        0x0001a65b    0xf4  Code  Gb  zigbee-device-util.o [71]
emZigbeeLeaveEvent      0x2003f4ac     0x8  Data  Gb  leave.o [71]
emZigbeeLeaveEventHandler
                        0x0000cd21    0x2e  Code  Gb  leave.o [71]
emZigbeeLeaveInternal   0x0000cd67    0x94  Code  Gb  leave.o [71]
emZigbeeMaxNetworkRetries
                        0x2003e3ef     0x1  Data  Gb  network.o [71]
emZigbeePermitJoiningEvent
                        0x2003f48c     0x8  Data  Gb  association.o [71]
emZigbeePermitJoiningEventHandler
                        0x00008973     0xa  Code  Gb  association.o [71]
emZigbeeProApsEncryptPacket
                        0x0000a2e7    0x74  Code  Gb  crypto.o [71]
emZigbeeProDecryptPacket
                        0x0000a3c5    0x9a  Code  Gb  crypto.o [71]
emZigbeeProLibraryStatus
                        0x00031830     0x1  Data  Gb  leaf-routing-stub.o [71]
emZigbeeProNetworkEncryptFlatPacket
                        0x0000a35b    0x5a  Code  Gb  crypto.o [71]
emZigbeeProcessEnhancedBeaconRequest
                        0x0001bd31     0x8  Code  Gb  enhanced-beacon-request-stub.o [56]
emZigbeeRf4ceLibraryStatus
                        0x00031840     0x1  Data  Gb  rf4ce-stack-stubs.o [65]
emZigbeeSourceIeeeAddress
                        0x0000ab83    0x22  Code  Gb  zigbee-packet-header.o [71]
emZllDeviceAnnounceHandler
                        0x0000eea3     0x2  Code  Gb  zll-stubs.o [72]
emZllInit               0x0000eeb1     0x2  Code  Gb  zll-stubs.o [72]
emZllLeaveCallback      0x0000ee95     0x2  Code  Gb  zll-stubs.o [72]
emZllLibraryStatus      0x00031be8     0x1  Data  Gb  zll-stubs.o [72]
emZllMacFilterMatchList
                        0x2003fd3c     0x4  Data  Gb  mac-header.o [71]
emZllOperationInProgress
                        0x0000ee9b     0x4  Code  Gb  zll-stubs.o [72]
emZllScanComplete       0x0000ee91     0x4  Code  Gb  zll-stubs.o [72]
emZllSendScanRequest    0x0000ee83     0x4  Code  Gb  zll-stubs.o [72]
emZllStackStatusHandler
                        0x0000ee9f     0x4  Code  Gb  zll-stubs.o [72]
emZllTouchLinkEvent     0x2003f454     0x8  Data  Gb  zll-stubs.o [72]
emZllTouchLinkEventHandler
                        0x0000ee81     0x2  Code  Gb  zll-stubs.o [72]
emberAddTransientLinkKey
                        0x0000d781    0x4a  Code  Gb  aps-keys-transient.o [67]
emberAesHashSimple      0x0001c005    0x2c  Code  Gb  aes-mmo.o [67]
emberAesMmoHashFinal    0x0001c097    0xa6  Code  Gb  aes-mmo.o [67]
emberAesMmoHashInit     0x0001c031     0x8  Code  Gb  aes-mmo.o [67]
emberAesMmoHashUpdate   0x0001c039    0x5e  Code  Gb  aes-mmo.o [67]
emberAfAddToCurrentAppTasksCallback
                        0x0001366f    0x30  Code  Gb  end-device-support.o [18]
emberAfAllowNetworkWriteAttributeCallback
                        0x00003435     0x4  Code  Gb  callback-stub.o [1]
emberAfAnalogDiscreteThresholds
                        0x00031474    0x14  Data  Lc  util.o [1]
emberAfApsRetryOverride
                        0x2003ff3f     0x1  Data  Gb  util.o [1]
emberAfAttributeDecodeAndPrintCluster
                        0x00016149     0x2  Code  Lc  attribute-table.o [1]
emberAfAttributeReadAccessCallback
                        0x00003439     0x4  Code  Gb  callback-stub.o [1]
emberAfAttributeWriteAccessCallback
                        0x0000343d     0x4  Code  Gb  callback-stub.o [1]
emberAfBasicClusterResetToFactoryDefaultsCallback
                        0x00029ae9    0x1c  Code  Gb  basic.o [5]
emberAfBasicClusterServerCommandParse
                        0x00028e9d    0x16  Code  Gb  call-command-handler.o [1]
emberAfClearReportTableCallback
                        0x000217e1    0x18  Code  Gb  reporting.o [38]
emberAfClearResponseData
                        0x00010875    0x2e  Code  Gb  message.o [1]
emberAfClusterCount     0x00004611    0x4e  Code  Gb  attribute-storage.o [1]
emberAfClusterDefaultResponseCallback
                        0x0000407f    0x2c  Code  Gb  attribute-storage.o [1]
emberAfClusterInitCallback
                        0x00003441     0x2  Code  Gb  callback-stub.o [1]
emberAfClusterMessageSentCallback
                        0x000040ab    0x5a  Code  Gb  attribute-storage.o [1]
emberAfClusterSecurityCustomCallback
                        0x00003443     0x4  Code  Gb  callback-stub.o [1]
emberAfClusterSpecificCommandParse
                        0x00028dfb    0xa2  Code  Gb  call-command-handler.o [1]
emberAfColorControlClusterMoveColorTemperatureCallback
                        0x000142f3    0xa8  Code  Gb  color-control-server.o [9]
emberAfColorControlClusterMoveToColorTemperatureCallback
                        0x00014289    0x6a  Code  Gb  color-control-server.o [9]
emberAfColorControlClusterServerAttributeChangedCallback
                        0x00021205     0x2  Code  Gb  led-temp-pwm.o [25]
emberAfColorControlClusterServerCommandParse
                        0x000291e3    0xc6  Code  Gb  call-command-handler.o [1]
emberAfColorControlClusterStepColorTemperatueCallback
                        0x0001439b    0x84  Code  Gb  color-control-server.o [9]
emberAfColorControlClusterStopMoveStepCallback
                        0x00014443    0x10  Code  Gb  color-control-server.o [9]
emberAfCompareValues    0x000134f9    0xb4  Code  Gb  util.o [1]
emberAfConfigureReportingCommandCallback
                        0x0002154b   0x138  Code  Gb  reporting.o [38]
emberAfConfigureReportingResponseCallback
                        0x00003447     0x4  Code  Gb  callback-stub.o [1]
emberAfContainsCluster  0x00004515     0x6  Code  Gb  attribute-storage.o [1]
emberAfContainsServer   0x0000451b     0x4  Code  Gb  attribute-storage.o [1]
emberAfCopyLongString   0x000134bb    0x3e  Code  Gb  util.o [1]
emberAfCopyString       0x0001348b    0x30  Code  Gb  util.o [1]
emberAfDeactivateClientTick
                        0x00006567     0x4  Code  Gb  af-event.o [1]
emberAfDeactivateClusterTick
                        0x00006551    0x16  Code  Gb  af-event.o [1]
emberAfDeactivateServerTick
                        0x0000656b     0x4  Code  Gb  af-event.o [1]
emberAfDecodeAndPrintCluster
                        0x00012f59    0x3e  Code  Gb  util.o [1]
emberAfDefaultResponseCallback
                        0x0000344b     0x4  Code  Gb  callback-stub.o [1]
emberAfDetermineIfLinkSecurityIsRequired
                        0x000133ef    0x3e  Code  Gb  util.o [1]
emberAfDiscoverAttributesResponseCallback
                        0x0000344f     0x4  Code  Gb  callback-stub.o [1]
emberAfEepromInitCallback
                        0x000293e7     0x4  Code  Gb  eeprom-afv2.o [13]
emberAfEepromNoteInitializedStateCallback
                        0x000293eb     0x4  Code  Gb  eeprom-afv2.o [13]
emberAfEndpointConfigure
                        0x00003fc1    0x6e  Code  Gb  attribute-storage.o [1]
emberAfEndpointCount    0x0000402f     0x8  Code  Gb  attribute-storage.o [1]
emberAfEndpointFromIndex
                        0x00004609     0x8  Code  Gb  attribute-storage.o [1]
emberAfEndpointIndexIsEnabled
                        0x00004037    0x10  Code  Gb  attribute-storage.o [1]
emberAfEndpointIsEnabled
                        0x000045eb    0x16  Code  Gb  attribute-storage.o [1]
emberAfEnergyScanResultCallback
                        0x00009deb    0x12  Code  Gb  scan-dispatch.o [39]
emberAfEventControlSetDelayMS
                        0x0000648f    0x1c  Code  Gb  af-event.o [1]
emberAfEventControlSetDelayQS
                        0x000064ab    0x10  Code  Gb  af-event.o [1]
emberAfExternalAttributeReadCallback
                        0x00003453     0x4  Code  Gb  callback-stub.o [1]
emberAfExternalAttributeWriteCallback
                        0x00003457     0x4  Code  Gb  callback-stub.o [1]
emberAfFillExternalBuffer
                        0x0001e657    0x12  Code  Gb  client-api.o [1]
emberAfFillExternalManufacturerSpecificBuffer
                        0x0001e641    0x16  Code  Gb  client-api.o [1]
emberAfFindCluster      0x00004529    0x14  Code  Gb  attribute-storage.o [1]
emberAfFindClusterFunction
                        0x0000494b    0x2a  Code  Gb  attribute-storage.o [1]
emberAfFindClusterInType
                        0x000044d3    0x42  Code  Gb  attribute-storage.o [1]
emberAfFindClusterIncludingDisabledEndpoints
                        0x0000453d     0xa  Code  Gb  attribute-storage.o [1]
emberAfFindClusterNameIndex
                        0x00012f2d    0x2c  Code  Gb  util.o [1]
emberAfFindClusterServerEndpointIndex
                        0x0000455b     0x4  Code  Gb  attribute-storage.o [1]
emberAfFindDevicesByProfileAndCluster
                        0x000137ad    0x4e  Code  Gb  service-discovery-common.o [1]
emberAfFindIeeeAddress  0x00013807    0x2a  Code  Gb  service-discovery-common.o [1]
emberAfFindNodeId       0x0001384d    0x30  Code  Gb  service-discovery-common.o [1]
emberAfFindUnusedPanIdAndFormCallback
                        0x0000345b     0x4  Code  Gb  callback-stub.o [1]
emberAfFlush            0x00002c43    0x14  Code  Gb  print.o [1]
emberAfFormatMfgString  0x00003ea9    0x20  Code  Gb  af-main-common.o [1]
emberAfFuncArrayColorControlClusterServer
                        0x0002f5f8     0x4  Data  Gb  attribute-storage.o [1]
emberAfFuncArrayGroupsClusterServer
                        0x0002f5e0     0x4  Data  Gb  attribute-storage.o [1]
emberAfFuncArrayIdentifyClusterServer
                        0x0002f5d8     0x8  Data  Gb  attribute-storage.o [1]
emberAfFuncArrayLevelControlClusterServer
                        0x0002f5ec     0x4  Data  Gb  attribute-storage.o [1]
emberAfFuncArrayOnOffClusterServer
                        0x0002f5e8     0x4  Data  Gb  attribute-storage.o [1]
emberAfFuncArrayOtaBootloadClusterClient
                        0x0002f5f0     0x8  Data  Gb  attribute-storage.o [1]
emberAfFuncArrayOtaConfigurationClusterServer
                        0x0002f5fc     0x4  Data  Gb  attribute-storage.o [1]
emberAfFuncArrayScenesClusterServer
                        0x0002f5e4     0x4  Data  Gb  attribute-storage.o [1]
emberAfGetAddressIndex  0x00000791    0x58  Code  Gb  af-main-soc.o [1]
emberAfGetAttributeAnalogOrDiscreteType
                        0x000135ad    0x18  Code  Gb  util.o [1]
emberAfGetBindingIndex  0x0000078d     0x4  Code  Gb  af-main-soc.o [1]
emberAfGetBindingTableSize
                        0x00000af3     0x4  Code  Gb  af-main-soc.o [1]
emberAfGetCommandApsFrame
                        0x0001e6c7     0x6  Code  Gb  client-api.o [1]
emberAfGetCurrentPollControlCallback
                        0x0001374b    0x4c  Code  Gb  end-device-support.o [18]
emberAfGetCurrentPollIntervalMsCallback
                        0x000136cd    0x5a  Code  Gb  end-device-support.o [18]
emberAfGetCurrentTime   0x00021c91     0x4  Code  Gb  time-util.o [1]
emberAfGetCurrentTimeCallback
                        0x0000345f     0x4  Code  Gb  callback-stub.o [1]
emberAfGetDataSize      0x000246c1    0x24  Code  Gb  attribute-size.o [1]
emberAfGetDefaultSleepControlCallback
                        0x00003463     0x4  Code  Gb  callback-stub.o [1]
emberAfGetDifference    0x00012df1    0x5a  Code  Gb  util.o [1]
emberAfGetEndpointByIndexCallback
                        0x00003467     0x4  Code  Gb  callback-stub.o [1]
emberAfGetEndpointDescriptionCallback
                        0x0000346b     0x4  Code  Gb  callback-stub.o [1]
emberAfGetEndpointInfoCallback
                        0x0000346f     0x4  Code  Gb  callback-stub.o [1]
emberAfGetEui64         0x00000acf     0x8  Code  Gb  af-main-soc.o [1]
emberAfGetFormAndJoinExtendedPanIdCallback
                        0x00003473     0x2  Code  Gb  callback-stub.o [1]
emberAfGetInt           0x00010963    0x2a  Code  Gb  message.o [1]
emberAfGetInt16u        0x00010991     0xc  Code  Gb  message.o [1]
emberAfGetInt32u        0x0001098d     0x4  Code  Gb  message.o [1]
emberAfGetLongPollIntervalMsCallback
                        0x000136b1     0xe  Code  Gb  end-device-support.o [18]
emberAfGetMfgString     0x00000773     0xe  Code  Gb  af-main-soc.o [1]
emberAfGetNetworkParameters
                        0x00000ad7    0x14  Code  Gb  af-main-soc.o [1]
emberAfGetNodeId        0x00000781     0x4  Code  Gb  af-main-soc.o [1]
emberAfGetNodeType      0x00000aeb     0x4  Code  Gb  af-main-soc.o [1]
emberAfGetNthCluster    0x0000465f    0x52  Code  Gb  attribute-storage.o [1]
emberAfGetPanId         0x00000785     0x4  Code  Gb  af-main-soc.o [1]
emberAfGetSecurityLevel
                        0x00000aef     0x4  Code  Gb  af-main-soc.o [1]
emberAfGetShortPollIntervalMsCallback
                        0x000136bf     0xe  Code  Gb  end-device-support.o [18]
emberAfGetSourceRouteOverheadCallback
                        0x00003475     0x4  Code  Gb  callback-stub.o [1]
emberAfGetString        0x0001099d    0x20  Code  Gb  message.o [1]
emberAfGroupsClusterAddGroupCallback
                        0x00021d61    0x42  Code  Gb  groups-server.o [21]
emberAfGroupsClusterAddGroupIfIdentifyingCallback
                        0x00022009    0x26  Code  Gb  groups-server.o [21]
emberAfGroupsClusterEndpointInGroupCallback
                        0x0002202f     0x2  Code  Gb  groups-server.o [21]
emberAfGroupsClusterGetGroupMembershipCallback
                        0x00021e01    0xde  Code  Gb  groups-server.o [21]
emberAfGroupsClusterRemoveAllGroupsCallback
                        0x00021f73    0x7c  Code  Gb  groups-server.o [21]
emberAfGroupsClusterRemoveGroupCallback
                        0x00021f13    0x48  Code  Gb  groups-server.o [21]
emberAfGroupsClusterServerCommandParse
                        0x00028ee9    0xa6  Code  Gb  call-command-handler.o [1]
emberAfGroupsClusterServerInitCallback
                        0x00021c95    0x24  Code  Gb  groups-server.o [21]
emberAfGroupsClusterViewGroupCallback
                        0x00021da3    0x5e  Code  Gb  groups-server.o [21]
emberAfHalButtonIsrCallback
                        0x00003479     0x2  Code  Gb  callback-stub.o [1]
emberAfIdentifyClusterIdentifyCallback
                        0x00029b5d    0x18  Code  Gb  identify.o [24]
emberAfIdentifyClusterIdentifyQueryCallback
                        0x00029b75    0x38  Code  Gb  identify.o [24]
emberAfIdentifyClusterServerAttributeChangedCallback
                        0x00029b53     0xa  Code  Gb  identify.o [24]
emberAfIdentifyClusterServerCommandParse
                        0x00028eb3    0x2a  Code  Gb  call-command-handler.o [1]
emberAfIdentifyClusterServerInitCallback
                        0x00029b2d     0x2  Code  Gb  identify.o [24]
emberAfIdentifyClusterServerTickCallback
                        0x00029b2f    0x24  Code  Gb  identify.o [24]
emberAfIdentifyClusterServerTickCallbackControl1
                        0x2003f104     0x8  Data  Gb  af-event.o [1]
emberAfIdentifyClusterServerTickCallbackWrapperFunction1
                        0x00006415     0x8  Code  Gb  af-event.o [1]
emberAfIncomingZclSequenceNumber
                        0x2003e3e4     0x1  Data  Gb  util.o [1]
emberAfIndexFromEndpoint
                        0x00004601     0x4  Code  Gb  attribute-storage.o [1]
emberAfIndexFromEndpointIncludingDisabledEndpoints
                        0x00004605     0x4  Code  Gb  attribute-storage.o [1]
emberAfInit             0x00012eb9    0x54  Code  Gb  util.o [1]
emberAfInitializeAttributes
                        0x000046b1     0x4  Code  Gb  attribute-storage.o [1]
emberAfInterpanSendMessageCallback
                        0x0000347b     0x4  Code  Gb  callback-stub.o [1]
emberAfInvalidImageId   0x0002f464    0x10  Data  Gb  af-main-common.o [1]
emberAfIsDeviceEnabled  0x00012db5    0x18  Code  Gb  util.o [1]
emberAfIsDeviceIdentifying
                        0x00012dcd    0x24  Code  Gb  util.o [1]
emberAfIsLongStringAttributeType
                        0x0000406f    0x10  Code  Gb  attribute-storage.o [1]
emberAfIsOtaImageIdValid
                        0x00024483    0x12  Code  Gb  ota-storage-common.o [35]
emberAfIsStringAttributeType
                        0x0000405f    0x10  Code  Gb  attribute-storage.o [1]
emberAfIsThisDataTypeAStringType
                        0x00004047    0x18  Code  Gb  attribute-storage.o [1]
emberAfIsTypeSigned     0x00013639     0xa  Code  Gb  util.o [1]
emberAfJoinNetwork      0x00003e61    0x32  Code  Gb  af-main-common.o [1]
emberAfLevelControlClusterMoveCallback
                        0x00014a29     0xa  Code  Gb  level-control.o [26]
emberAfLevelControlClusterMoveToLevelCallback
                        0x00014a07     0xe  Code  Gb  level-control.o [26]
emberAfLevelControlClusterMoveToLevelWithOnOffCallback
                        0x00014a15     0xc  Code  Gb  level-control.o [26]
emberAfLevelControlClusterMoveWithOnOffCallback
                        0x00014a33     0x8  Code  Gb  level-control.o [26]
emberAfLevelControlClusterServerAttributeChangedCallback
                        0x00021201     0x2  Code  Gb  led-temp-pwm.o [25]
emberAfLevelControlClusterServerCommandParse
                        0x00029105    0xc4  Code  Gb  call-command-handler.o [1]
emberAfLevelControlClusterServerTickCallback
                        0x000148d1    0xf8  Code  Gb  level-control.o [26]
emberAfLevelControlClusterServerTickCallbackControl1
                        0x2003f10c     0x8  Data  Gb  af-event.o [1]
emberAfLevelControlClusterServerTickCallbackWrapperFunction1
                        0x0000641d     0x8  Code  Gb  af-event.o [1]
emberAfLevelControlClusterStepCallback
                        0x00014a43     0xc  Code  Gb  level-control.o [26]
emberAfLevelControlClusterStepWithOnOffCallback
                        0x00014a4f     0xa  Code  Gb  level-control.o [26]
emberAfLevelControlClusterStopCallback
                        0x00014a61     0x6  Code  Gb  level-control.o [26]
emberAfLevelControlClusterStopWithOnOffCallback
                        0x00014a67     0x4  Code  Gb  level-control.o [26]
emberAfLocateAttributeMetadata
                        0x000041fd    0x32  Code  Gb  attribute-storage.o [1]
emberAfLongStringLength
                        0x000109e7    0x16  Code  Gb  message.o [1]
emberAfMain             0x000006c3    0xb0  Code  Gb  af-main-soc.o [1]
emberAfMainInit         0x0000064d    0x76  Code  Gb  af-main-soc.o [1]
emberAfMainInitCallback
                        0x0000347f     0x2  Code  Gb  callback-stub.o [1]
emberAfMainStartCallback
                        0x00003481     0x4  Code  Gb  callback-stub.o [1]
emberAfMainTickCallback
                        0x00003485     0x2  Code  Gb  callback-stub.o [1]
emberAfMaximumApsPayloadLength
                        0x0001342d    0x5e  Code  Gb  util.o [1]
emberAfMessageSentCallback
                        0x00003487     0x4  Code  Gb  callback-stub.o [1]
emberAfMfglibClusterRxModeCallback
                        0x00014df5     0x8  Code  Gb  manufacturing-library-ota.o [28]
emberAfMfglibClusterServerCommandParse
                        0x0002935d    0x64  Code  Gb  call-command-handler.o [1]
emberAfMfglibClusterStreamCallback
                        0x00014de5     0x6  Code  Gb  manufacturing-library-ota.o [28]
emberAfMfglibClusterToneCallback
                        0x00014ddd     0x8  Code  Gb  manufacturing-library-ota.o [28]
emberAfMfglibEnabled    0x00022551    0x26  Code  Gb  manufacturing-library-cli.o [27]
emberAfMfglibRunning    0x00022549     0x8  Code  Gb  manufacturing-library-cli.o [27]
emberAfMfglibRxStatistics
                        0x00022605    0x1a  Code  Gb  manufacturing-library-cli.o [27]
emberAfMfglibStart      0x0002261f    0x28  Code  Gb  manufacturing-library-cli.o [27]
emberAfMfglibStop       0x00022659    0x26  Code  Gb  manufacturing-library-cli.o [27]
emberAfMoveInProgressCallback
                        0x00014749     0x6  Code  Gb  end-device-move.o [18]
emberAfNetworkEventControlGetActive
                        0x000037cd     0x8  Code  Gb  multi-network.o [1]
emberAfNetworkEventControlSetDelayMS
                        0x000037d5     0x4  Code  Gb  multi-network.o [1]
emberAfNetworkEventControlSetDelayQS
                        0x000037d9     0x4  Code  Gb  multi-network.o [1]
emberAfNetworkEventControlSetInactive
                        0x000037c7     0x6  Code  Gb  multi-network.o [1]
emberAfNetworkFoundCallback
                        0x00009dfd     0xe  Code  Gb  scan-dispatch.o [39]
emberAfNetworkIndexFromEndpoint
                        0x000037b9     0xe  Code  Gb  multi-network.o [1]
emberAfNetworkState     0x00000789     0x4  Code  Gb  af-main-soc.o [1]
emberAfNextSequence     0x00013279    0x12  Code  Gb  util.o [1]
emberAfOnOffClusterLevelControlEffectCallback
                        0x00014d39    0x64  Code  Gb  level-control.o [26]
emberAfOnOffClusterOffCallback
                        0x0001508d     0xa  Code  Gb  on-off.o [30]
emberAfOnOffClusterOnCallback
                        0x00015097     0x8  Code  Gb  on-off.o [30]
emberAfOnOffClusterServerAttributeChangedCallback
                        0x00021203     0x2  Code  Gb  led-temp-pwm.o [25]
emberAfOnOffClusterServerCommandParse
                        0x000290dd    0x28  Code  Gb  call-command-handler.o [1]
emberAfOnOffClusterSetValueCallback
                        0x0001500d    0x80  Code  Gb  on-off.o [30]
emberAfOnOffClusterToggleCallback
                        0x000150c1     0xa  Code  Gb  on-off.o [30]
emberAfOtaBootloadCallback
                        0x000293f1    0x18  Code  Gb  ota-bootload-soc.o [31]
emberAfOtaBootloadClusterClientDefaultResponseCallback
                        0x000156a5    0x1c  Code  Gb  ota-client.o [32]
emberAfOtaBootloadClusterClientInitCallback
                        0x0001512f    0x48  Code  Gb  ota-client.o [32]
emberAfOtaBootloadClusterClientTickCallback
                        0x000152b3     0x2  Code  Gb  ota-client.o [32]
emberAfOtaBootloadClusterClientTickCallbackControl1
                        0x2003f114     0x8  Data  Gb  af-event.o [1]
emberAfOtaBootloadClusterClientTickCallbackWrapperFunction1
                        0x00006425     0x8  Code  Gb  af-event.o [1]
emberAfOtaClientBootloadCallback
                        0x00023ed7    0x2a  Code  Gb  ota-client-policy.o [33]
emberAfOtaClientCustomVerifyCallback
                        0x00023e7f    0x48  Code  Gb  ota-client-policy.o [33]
emberAfOtaClientDownloadCompleteCallback
                        0x00023ec7    0x10  Code  Gb  ota-client-policy.o [33]
emberAfOtaClientIncomingMessageRawCallback
                        0x0001567f    0x26  Code  Gb  ota-client.o [32]
emberAfOtaClientStartCallback
                        0x00015335    0x18  Code  Gb  ota-client.o [32]
emberAfOtaClientVersionInfoCallback
                        0x00023e57    0x28  Code  Gb  ota-client-policy.o [33]
emberAfOtaConfigurationClusterLockTokensCallback
                        0x000102a1    0x10  Code  Gb  configuration-server.o [10]
emberAfOtaConfigurationClusterReadTokensCallback
                        0x000102b1    0x30  Code  Gb  configuration-server.o [10]
emberAfOtaConfigurationClusterServerCommandParse
                        0x000292d5    0x7e  Code  Gb  call-command-handler.o [1]
emberAfOtaConfigurationClusterServerInitCallback
                        0x000101f9    0x94  Code  Gb  configuration-server.o [10]
emberAfOtaConfigurationClusterSetTokenCallback
                        0x000102e1    0xe8  Code  Gb  configuration-server.o [10]
emberAfOtaConfigurationClusterUnlockTokensCallback
                        0x000103e9    0x3e  Code  Gb  configuration-server.o [10]
emberAfOtaServerSendUpgradeRequest
                        0x00015f71     0xa  Code  Gb  ota-client.o [32]
emberAfOtaStorageCheckTempDataCallback
                        0x00023d77    0x58  Code  Gb  ota-storage-simple.o [36]
emberAfOtaStorageClearTempDataCallback
                        0x00023d55     0xa  Code  Gb  ota-storage-simple.o [36]
emberAfOtaStorageDeleteImageCallback
                        0x00023dcf    0x1e  Code  Gb  ota-storage-simple.o [36]
emberAfOtaStorageDriverDownloadFinishCallback
                        0x00024683    0x10  Code  Gb  ota-storage-eeprom.o [37]
emberAfOtaStorageDriverInitCallback
                        0x000244ff    0x28  Code  Gb  ota-storage-eeprom.o [37]
emberAfOtaStorageDriverInvalidateImageCallback
                        0x00024263    0x2e  Code  Gb  ota-storage-eeprom-page-erase.o [37]
emberAfOtaStorageDriverMaxDownloadSizeCallback
                        0x00024693     0x2  Code  Gb  ota-storage-eeprom.o [37]
emberAfOtaStorageDriverPrepareToResumeDownloadCallback
                        0x000242bf    0x32  Code  Gb  ota-storage-eeprom-page-erase.o [37]
emberAfOtaStorageDriverReadCallback
                        0x00024625    0x12  Code  Gb  ota-storage-eeprom.o [37]
emberAfOtaStorageDriverRetrieveLastStoredOffsetCallback
                        0x00024291    0x28  Code  Gb  ota-storage-eeprom-page-erase.o [37]
emberAfOtaStorageDriverWriteCallback
                        0x00024657    0x2c  Code  Gb  ota-storage-eeprom.o [37]
emberAfOtaStorageFinishDownloadCallback
                        0x00023d4b     0xa  Code  Gb  ota-storage-simple.o [36]
emberAfOtaStorageGetFullHeaderCallback
                        0x00023ba5    0x2a  Code  Gb  ota-storage-simple.o [36]
emberAfOtaStorageInitCallback
                        0x00023b15    0x32  Code  Gb  ota-storage-simple.o [36]
emberAfOtaStorageIteratorFirstCallback
                        0x00023b9b     0x2  Code  Gb  ota-storage-simple.o [36]
emberAfOtaStorageIteratorNextCallback
                        0x00023b9d     0x8  Code  Gb  ota-storage-simple.o [36]
emberAfOtaStorageReadImageDataCallback
                        0x00023d11    0x3a  Code  Gb  ota-storage-simple.o [36]
emberAfOtaStorageSearchCallback
                        0x00023b47    0x54  Code  Gb  ota-storage-simple.o [36]
emberAfOtaStorageWriteTempDataCallback
                        0x00023d5f    0x18  Code  Gb  ota-storage-simple.o [36]
emberAfPartnerLinkKeyExchangeRequestCallback
                        0x0000348b     0x4  Code  Gb  callback-stub.o [1]
emberAfPartnerLinkKeyExchangeResponseCallback
                        0x0000348f     0x2  Code  Gb  callback-stub.o [1]
emberAfPerformingKeyEstablishmentCallback
                        0x00003491     0x4  Code  Gb  callback-stub.o [1]
emberAfPermitJoin       0x00003b63    0x1a  Code  Gb  af-main-common.o [1]
emberAfPluginBasicResetToFactoryDefaultsCallback
                        0x00029c43     0x2  Code  Gb  Z3ColorTempLightSoc_3_callbacks.o [1]
emberAfPluginBulbPwmDriverBlinkEventControl
                        0x2003efe0     0x8  Data  Gb  bulb-pwm-driver-blink.o [7]
emberAfPluginBulbPwmDriverBlinkEventHandler
                        0x00022beb     0x4  Code  Gb  bulb-pwm-driver-blink.o [7]
emberAfPluginBulbPwmDriverInitCallback
                        0x00020adb     0x2  Code  Gb  bulb-pwm-driver-efr32.o [7]
emberAfPluginBulbPwmDriverStatusEventControl
                        0x2003efe8     0x8  Data  Gb  bulb-pwm-driver-blink.o [7]
emberAfPluginBulbPwmDriverStatusEventHandler
                        0x00022bef     0x4  Code  Gb  bulb-pwm-driver-blink.o [7]
emberAfPluginBulbUiBulbUiRebootEventControl
                        0x2003efd0     0x8  Data  Gb  bulb-ui.o [8]
emberAfPluginBulbUiBulbUiRebootEventHandler
                        0x00013c09   0x17e  Code  Gb  bulb-ui.o [8]
emberAfPluginBulbUiFinishedCallback
                        0x00003495     0x2  Code  Gb  callback-stub.o [1]
emberAfPluginBulbUiInitCallback
                        0x00013d8d    0x3a  Code  Gb  bulb-ui.o [8]
emberAfPluginBulbUiInitiateNetworkSearch
                        0x00014037     0xc  Code  Gb  bulb-ui.o [8]
emberAfPluginBulbUiRejoinEventControl
                        0x2003efd8     0x8  Data  Gb  bulb-ui.o [8]
emberAfPluginBulbUiRejoinEventHandler
                        0x00013f1b    0x56  Code  Gb  bulb-ui.o [8]
emberAfPluginBulbUiStackStatusCallback
                        0x00013e6b    0xaa  Code  Gb  bulb-ui.o [8]
emberAfPluginColorControlServerComputePwmFromHsvCallback
                        0x00003497     0x2  Code  Gb  callback-stub.o [1]
emberAfPluginColorControlServerComputePwmFromTempCallback
                        0x00021295    0x14  Code  Gb  led-temp-pwm.o [25]
emberAfPluginColorControlServerComputePwmFromXyCallback
                        0x00003499     0x2  Code  Gb  callback-stub.o [1]
emberAfPluginColorControlServerHueSatTransitionEventControl
                        0x2003ef7c     0x8  Data  Gb  color-control-server.o [9]
emberAfPluginColorControlServerHueSatTransitionEventHandler
                        0x0001456d    0x56  Code  Gb  color-control-server.o [9]
emberAfPluginColorControlServerStackStatusCallback
                        0x0001427f     0xa  Code  Gb  color-control-server.o [9]
emberAfPluginColorControlServerTempTransitionEventControl
                        0x2003ef6c     0x8  Data  Gb  color-control-server.o [9]
emberAfPluginColorControlServerTempTransitionEventHandler
                        0x00014697    0x36  Code  Gb  color-control-server.o [9]
emberAfPluginColorControlServerXyTransitionEventControl
                        0x2003ef74     0x8  Data  Gb  color-control-server.o [9]
emberAfPluginColorControlServerXyTransitionEventHandler
                        0x00014643    0x54  Code  Gb  color-control-server.o [9]
emberAfPluginConfigurationServerReadMaxOnTimeUs
                        0x0001055f     0x8  Code  Gb  configuration-server.o [10]
emberAfPluginConfigurationServerReadMinOnTimeUs
                        0x00010555     0xa  Code  Gb  configuration-server.o [10]
emberAfPluginEepromBusy
                        0x00020d81     0xe  Code  Gb  eeprom.o [13]
emberAfPluginEepromErase
                        0x00020d19    0x48  Code  Gb  eeprom.o [13]
emberAfPluginEepromFlushSavedPartialWrites
                        0x00020cb1    0x4e  Code  Gb  eeprom.o [13]
emberAfPluginEepromGetWordSize
                        0x00020ae9    0x26  Code  Gb  eeprom.o [13]
emberAfPluginEepromGetWordSize::wordSize
                        0x2003ff23     0x1  Data  Lc  eeprom.o [13]
emberAfPluginEepromInfo
                        0x00020b83     0xe  Code  Gb  eeprom.o [13]
emberAfPluginEepromInit
                        0x00020b5f    0x24  Code  Gb  eeprom.o [13]
emberAfPluginEepromInitCallback
                        0x00020ae1     0x2  Code  Gb  eeprom.o [13]
emberAfPluginEepromNoteInitializedState
                        0x00020b0f     0x6  Code  Gb  eeprom.o [13]
emberAfPluginEepromRead
                        0x00020cff    0x1a  Code  Gb  eeprom.o [13]
emberAfPluginEepromWrite
                        0x00020bf5    0xb4  Code  Gb  eeprom.o [13]
emberAfPluginEndDeviceSupportInitCallback
                        0x00013645    0x2a  Code  Gb  end-device-support.o [18]
emberAfPluginEndDeviceSupportMoveNetworkEventControls
                        0x2003f11c     0x8  Data  Gb  af-event.o [1]
emberAfPluginEndDeviceSupportMoveNetworkEventHandler
                        0x000147c3    0x46  Code  Gb  end-device-move.o [18]
emberAfPluginEndDeviceSupportMoveNetworkEventWrapper0
                        0x000063e7     0x8  Code  Gb  af-event.o [1]
emberAfPluginEndDeviceSupportPollCompletedCallback
                        0x0000349b     0x2  Code  Gb  callback-stub.o [1]
emberAfPluginEndDeviceSupportPollingNetworkEventControls
                        0x2003f124     0x8  Data  Gb  af-event.o [1]
emberAfPluginEndDeviceSupportPollingNetworkEventHandler
                        0x000164b7    0x28  Code  Gb  polling-soc.o [18]
emberAfPluginEndDeviceSupportPollingNetworkEventWrapper0
                        0x000063ef     0x8  Code  Gb  af-event.o [1]
emberAfPluginEndDeviceSupportStackStatusCallback
                        0x00014825    0x28  Code  Gb  end-device-move.o [18]
emberAfPluginEndDeviceSupportTickCallback
                        0x00016469    0x4e  Code  Gb  polling-soc.o [18]
emberAfPluginFindAndBindTargetStart
                        0x000229f1    0x48  Code  Gb  find-and-bind-target.o [20]
emberAfPluginGroupsServerGetGroupNameCallback
                        0x0000349d     0x2  Code  Gb  callback-stub.o [1]
emberAfPluginGroupsServerGroupNamesSupportedCallback
                        0x0000349f     0x4  Code  Gb  callback-stub.o [1]
emberAfPluginGroupsServerSetGroupNameCallback
                        0x000034a3     0x2  Code  Gb  callback-stub.o [1]
emberAfPluginIdentifyStartFeedbackCallback
                        0x00029c45     0xa  Code  Gb  Z3ColorTempLightSoc_3_callbacks.o [1]
emberAfPluginIdentifyStopFeedbackCallback
                        0x00029c4f    0x10  Code  Gb  Z3ColorTempLightSoc_3_callbacks.o [1]
emberAfPluginLedTempPwmInitCallback
                        0x00021061    0x7c  Code  Gb  led-temp-pwm.o [25]
emberAfPluginLevelControlStackStatusCallback
                        0x000148c7     0xa  Code  Gb  level-control.o [26]
emberAfPluginManufacturingLibraryOtaKickoffEventControl
                        0x2003e8ac     0x8  Data  Gb  manufacturing-library-ota.o [28]
emberAfPluginManufacturingLibraryOtaKickoffEventHandler
                        0x00014e59    0x82  Code  Gb  manufacturing-library-ota.o [28]
emberAfPluginManufacturingLibraryOtaStackStatusCallback
                        0x00014e47    0x12  Code  Gb  manufacturing-library-ota.o [28]
emberAfPluginManufacturingLibraryOtaTimeoutEventControl
                        0x2003e8b4     0x8  Data  Gb  manufacturing-library-ota.o [28]
emberAfPluginManufacturingLibraryOtaTimeoutEventHandler
                        0x00014f33    0x58  Code  Gb  manufacturing-library-ota.o [28]
emberAfPluginNetworkSteeringCompleteCallback
                        0x000034a5    0x34  Code  Gb  callback-stub.o [1]
emberAfPluginNetworkSteeringFinishSteeringEventControl
                        0x2003e8a4     0x8  Data  Gb  network-steering.o [29]
emberAfPluginNetworkSteeringFinishSteeringEventHandler
                        0x00002a37    0x68  Code  Gb  network-steering.o [29]
emberAfPluginNetworkSteeringGetDistributedKeyCallback
                        0x00010545    0x10  Code  Gb  configuration-server.o [10]
emberAfPluginNetworkSteeringGetNodeTypeCallback
                        0x000034d9    0x16  Code  Gb  callback-stub.o [1]
emberAfPluginNetworkSteeringGetPowerForRadioChannelCallback
                        0x000104e1    0x4a  Code  Gb  configuration-server.o [10]
emberAfPluginNetworkSteeringStackStatusCallback
                        0x000026d1    0x60  Code  Gb  network-steering.o [29]
emberAfPluginNetworkSteeringStart
                        0x000029ed    0x4a  Code  Gb  network-steering.o [29]
emberAfPluginOnOffStackStatusCallback
                        0x00015003     0xa  Code  Gb  on-off.o [30]
emberAfPluginOtaClientStackStatusCallback
                        0x000151d9    0x2e  Code  Gb  ota-client.o [32]
emberAfPluginOtaStorageSimpleEepromEraseCompleteCallback
                        0x00015299    0x1a  Code  Gb  ota-client.o [32]
emberAfPluginOtaStorageSimpleEepromPageEraseEventControl
                        0x2003e83c     0x8  Data  Gb  ota-storage-eeprom.o [37]
emberAfPluginOtaStorageSimpleEepromPageEraseEventHandler
                        0x00024171     0xc  Code  Gb  ota-storage-eeprom-page-erase.o [37]
emberAfPluginReportingConfigureReportedAttribute
                        0x000219ff   0x110  Code  Gb  reporting.o [38]
emberAfPluginReportingConfiguredCallback
                        0x00003509     0x4  Code  Gb  callback-stub.o [1]
emberAfPluginReportingInitCallback
                        0x0002130f    0x38  Code  Gb  reporting.o [38]
emberAfPluginReportingTickEventControl
                        0x2003e82c     0x8  Data  Gb  reporting.o [38]
emberAfPluginReportingTickEventHandler
                        0x00021347   0x1e0  Code  Gb  reporting.o [38]
emberAfPluginScanDispatchScheduleScan
                        0x00009d47    0x3a  Code  Gb  scan-dispatch.o [39]
emberAfPluginScanDispatchTickCallback
                        0x00009d81    0x64  Code  Gb  scan-dispatch.o [39]
emberAfPluginScenesServerEntriesInUse
                        0x2003feea     0x1  Data  Gb  scenes.o [40]
emberAfPluginScenesServerParseAddScene
                        0x00023395   0x2b8  Code  Gb  scenes.o [40]
emberAfPluginScenesServerParseViewScene
                        0x00023675   0x192  Code  Gb  scenes.o [40]
emberAfPluginUpdateTcLinkKeyStart
                        0x00000521    0x56  Code  Gb  update-tc-link-key.o [43]
emberAfPluginUpdateTcLinkKeyStatusCallback
                        0x00002aa7    0x74  Code  Gb  network-steering.o [29]
emberAfPluginUpdateTcLinkKeyStop
                        0x00000577    0x12  Code  Gb  update-tc-link-key.o [43]
emberAfPluginUpdateTcLinkKeyZdoMessageReceivedCallback
                        0x00000589    0x5a  Code  Gb  update-tc-link-key.o [43]
emberAfPluginUpdateTcLinkKeyZigbeeKeyEstablishmentCallback
                        0x000005e3    0x44  Code  Gb  update-tc-link-key.o [43]
emberAfPopNetworkIndex  0x00003795     0x4  Code  Gb  multi-network.o [1]
emberAfPostAttributeChangeCallback
                        0x0000350d     0x2  Code  Gb  callback-stub.o [1]
emberAfPreAttributeChangeCallback
                        0x0000350f     0x4  Code  Gb  callback-stub.o [1]
emberAfPreCliSendCallback
                        0x00003513     0x4  Code  Gb  callback-stub.o [1]
emberAfPreCommandReceivedCallback
                        0x00003517     0x4  Code  Gb  callback-stub.o [1]
emberAfPreMessageReceivedCallback
                        0x0000351b     0x4  Code  Gb  callback-stub.o [1]
emberAfPreMessageSendCallback
                        0x0000351f     0x4  Code  Gb  callback-stub.o [1]
emberAfPreZDOMessageReceivedCallback
                        0x00003523     0x4  Code  Gb  callback-stub.o [1]
emberAfPrimaryEndpointForCurrentNetworkIndex
                        0x0000379b     0x2  Code  Gb  multi-network.o [1]
emberAfPrint            0x00002c63     0xa  Code  Gb  print.o [1]
emberAfPrint8ByteBlocks
                        0x00002d3b    0x40  Code  Gb  print-formatter.o [1]
emberAfPrintActiveArea  0x2003fed0     0x2  Data  Gb  print.o [1]
emberAfPrintAttributeTable
                        0x0001614b    0xba  Code  Gb  attribute-table.o [1]
emberAfPrintBigEndianEui64
                        0x00002ced    0x24  Code  Gb  print-formatter.o [1]
emberAfPrintBuffer      0x00002cc5     0xa  Code  Gb  print-formatter.o [1]
emberAfPrintEnabled     0x00002bfd    0x1c  Code  Gb  print.o [1]
emberAfPrintReceivedMessages
                        0x2003e3c9     0x1  Data  Gb  af-main-common.o [1]
emberAfPrintString      0x00002ccf    0x12  Code  Gb  print-formatter.o [1]
emberAfPrintln          0x00002c57     0xc  Code  Gb  print.o [1]
emberAfProcessMessage   0x00013131   0x140  Code  Gb  util.o [1]
emberAfProcessMessageIntoZclCmd
                        0x000130a1    0x90  Code  Gb  util.o [1]
emberAfPushCallbackNetworkIndex
                        0x0000377f     0x4  Code  Gb  multi-network.o [1]
emberAfPushEndpointNetworkIndex
                        0x00003783    0x12  Code  Gb  multi-network.o [1]
emberAfPushNetworkIndex
                        0x00003779     0x6  Code  Gb  multi-network.o [1]
emberAfPutBlockInResp   0x0001092d    0x36  Code  Gb  message.o [1]
emberAfPutInt16uInResp  0x000108cb    0x1e  Code  Gb  message.o [1]
emberAfPutInt32uInResp  0x000108e9    0x2e  Code  Gb  message.o [1]
emberAfPutInt8uInResp   0x000108a3    0x28  Code  Gb  message.o [1]
emberAfReadAttribute    0x0001604b    0x14  Code  Gb  attribute-table.o [1]
emberAfReadAttributesResponseCallback
                        0x00003527     0x4  Code  Gb  callback-stub.o [1]
emberAfReadReportingConfigurationCommandCallback
                        0x00021695   0x146  Code  Gb  reporting.o [38]
emberAfReadReportingConfigurationResponseCallback
                        0x0000352b     0x4  Code  Gb  callback-stub.o [1]
emberAfReadSequentialAttributesAddToResponse
                        0x00016081    0xc8  Code  Gb  attribute-table.o [1]
emberAfReadServerAttribute
                        0x0001605f     0xa  Code  Gb  attribute-table.o [1]
emberAfRegistrationAbortCallback
                        0x0000352f     0x2  Code  Gb  callback-stub.o [1]
emberAfRegistrationStartCallback
                        0x00003531     0x4  Code  Gb  callback-stub.o [1]
emberAfRemoteDeleteBindingPermissionCallback
                        0x00003535     0x4  Code  Gb  callback-stub.o [1]
emberAfRemoteSetBindingPermissionCallback
                        0x00003539     0x4  Code  Gb  callback-stub.o [1]
emberAfRemoveFromCurrentAppTasksCallback
                        0x0001369f    0x12  Code  Gb  end-device-support.o [18]
emberAfReportAttributesCallback
                        0x0000353d     0x4  Code  Gb  callback-stub.o [1]
emberAfReportingAttributeChangeCallback
                        0x000217f9    0xb0  Code  Gb  reporting.o [38]
emberAfResetAttributes  0x000046b5    0x14  Code  Gb  attribute-storage.o [1]
emberAfResponseApsFrame
                        0x2003f2f4     0xc  Data  Gb  message.o [1]
emberAfResponseDestination
                        0x2003feca     0x2  Data  Gb  message.o [1]
emberAfResponseType     0x2003ff40     0x1  Data  Gb  util.o [1]
emberAfRetrieveAttributeAndCraftResponse
                        0x00016211    0xa6  Code  Gb  attribute-table.o [1]
emberAfRunEvents        0x00006441    0x18  Code  Gb  af-event.o [1]
emberAfScanCompleteCallback
                        0x00009e13    0x2c  Code  Gb  scan-dispatch.o [39]
emberAfScenesClusterAddSceneCallback
                        0x00022d11    0x1a  Code  Gb  scenes.o [40]
emberAfScenesClusterClearSceneTableCallback
                        0x000232ff    0x7e  Code  Gb  scenes.o [40]
emberAfScenesClusterGetSceneMembershipCallback
                        0x00022f05    0xc2  Code  Gb  scenes.o [40]
emberAfScenesClusterMakeInvalidCallback
                        0x00022cf3    0x16  Code  Gb  scenes.o [40]
emberAfScenesClusterRecallSavedSceneCallback
                        0x00023125   0x104  Code  Gb  scenes.o [40]
emberAfScenesClusterRecallSceneCallback
                        0x00022ee1    0x16  Code  Gb  scenes.o [40]
emberAfScenesClusterRemoveAllScenesCallback
                        0x00022de9    0x70  Code  Gb  scenes.o [40]
emberAfScenesClusterRemoveSceneCallback
                        0x00022d39    0x8e  Code  Gb  scenes.o [40]
emberAfScenesClusterRemoveScenesInGroupCallback
                        0x00023869    0x54  Code  Gb  scenes.o [40]
emberAfScenesClusterServerCommandParse
                        0x00028f9d    0xfe  Code  Gb  call-command-handler.o [1]
emberAfScenesClusterServerInitCallback
                        0x00022c77    0x14  Code  Gb  scenes.o [40]
emberAfScenesClusterStoreCurrentSceneCallback
                        0x00022fd9   0x13c  Code  Gb  scenes.o [40]
emberAfScenesClusterStoreSceneCallback
                        0x00022e99    0x40  Code  Gb  scenes.o [40]
emberAfScenesClusterViewSceneCallback
                        0x00022d2b     0xe  Code  Gb  scenes.o [40]
emberAfScenesMakeValid  0x00022c9f    0x4e  Code  Gb  scenes.o [40]
emberAfScenesSetSceneCountAttribute
                        0x00022c8b    0x14  Code  Gb  scenes.o [40]
emberAfScheduleClientTickExtended
                        0x000064eb     0xe  Code  Gb  af-event.o [1]
emberAfScheduleServerTick
                        0x0000650b     0xc  Code  Gb  af-event.o [1]
emberAfScheduleServerTickExtended
                        0x000064f9     0xc  Code  Gb  af-event.o [1]
emberAfScheduleTickExtended
                        0x000064bb    0x30  Code  Gb  af-event.o [1]
emberAfSendBroadcast    0x00003a39     0xe  Code  Gb  af-main-common.o [1]
emberAfSendBroadcastWithCallback
                        0x00003a1b    0x1e  Code  Gb  af-main-common.o [1]
emberAfSendCommandUnicast
                        0x0001e6c3     0x4  Code  Gb  client-api.o [1]
emberAfSendCommandUnicastToBindings
                        0x0001e6a3     0x4  Code  Gb  client-api.o [1]
emberAfSendCommandUnicastToBindingsWithCallback
                        0x0001e68f    0x14  Code  Gb  client-api.o [1]
emberAfSendCommandUnicastWithCallback
                        0x0001e6a7    0x1c  Code  Gb  client-api.o [1]
emberAfSendDefaultResponse
                        0x000133eb     0x4  Code  Gb  util.o [1]
emberAfSendDefaultResponseWithCallback
                        0x0001336f    0x7c  Code  Gb  util.o [1]
emberAfSendEndDeviceBind
                        0x000007e9    0x20  Code  Gb  af-main-soc.o [1]
emberAfSendImmediateDefaultResponse
                        0x0001336b     0x4  Code  Gb  util.o [1]
emberAfSendImmediateDefaultResponseWithCallback
                        0x00013361     0xa  Code  Gb  util.o [1]
emberAfSendMulticast    0x00003a0d     0xe  Code  Gb  af-main-common.o [1]
emberAfSendMulticastWithCallback
                        0x000039e7    0x1e  Code  Gb  af-main-common.o [1]
emberAfSendResponse     0x0001335d     0x4  Code  Gb  util.o [1]
emberAfSendResponseWithCallback
                        0x000132b1    0xa4  Code  Gb  util.o [1]
emberAfSendUnicast      0x00003a8f    0x10  Code  Gb  af-main-common.o [1]
emberAfSendUnicastToBindingsWithCallback
                        0x00003a9f    0x68  Code  Gb  af-main-common.o [1]
emberAfSendUnicastWithCallback
                        0x00003a47    0x48  Code  Gb  af-main-common.o [1]
emberAfSequenceNumber   0x2003e3e5     0x1  Data  Gb  util.o [1]
emberAfSetDefaultSleepControlCallback
                        0x00003541     0x2  Code  Gb  callback-stub.o [1]
emberAfSetExternalBuffer
                        0x0001e62d    0x14  Code  Gb  client-api.o [1]
emberAfSetFormAndJoinExtendedPanIdCallback
                        0x00003543     0x2  Code  Gb  callback-stub.o [1]
emberAfSetNoReplyForNextMessage
                        0x00013291    0x1a  Code  Gb  util.o [1]
emberAfSetTime          0x00021c8d     0x4  Code  Gb  time-util.o [1]
emberAfSetTimeCallback  0x00003545     0x2  Code  Gb  callback-stub.o [1]
emberAfStackDown        0x00012f0f    0x1e  Code  Gb  util.o [1]
emberAfStackStatusCallback
                        0x00003547     0x4  Code  Gb  callback-stub.o [1]
emberAfStartMoveCallback
                        0x0001474f    0x14  Code  Gb  end-device-move.o [18]
emberAfStartSearchForJoinableNetworkCallback
                        0x0000354b     0x4  Code  Gb  callback-stub.o [1]
emberAfStopMoveCallback
                        0x00014763    0x16  Code  Gb  end-device-move.o [18]
emberAfStringLength     0x000109d9     0xe  Code  Gb  message.o [1]
emberAfTick             0x00012f0d     0x2  Code  Gb  util.o [1]
emberAfTrustCenterJoinCallback
                        0x0000354f     0x2  Code  Gb  callback-stub.o [1]
emberAfTrustCenterKeepaliveAbortCallback
                        0x00003551     0x2  Code  Gb  callback-stub.o [1]
emberAfVerifyAttributeWrite
                        0x00016031    0x1a  Code  Gb  attribute-table.o [1]
emberAfWriteAttribute   0x00015fd1    0x1a  Code  Gb  attribute-table.o [1]
emberAfWriteAttributeExternal
                        0x00015f81    0x50  Code  Gb  attribute-table.o [1]
emberAfWriteAttributesResponseCallback
                        0x00003553     0x4  Code  Gb  callback-stub.o [1]
emberAfWriteManufacturerSpecificServerAttribute
                        0x0001600b     0xa  Code  Gb  attribute-table.o [1]
emberAfWriteServerAttribute
                        0x00015feb     0xc  Code  Gb  attribute-table.o [1]
emberAfZigbeeKeyEstablishmentCallback
                        0x00003557     0x2  Code  Gb  callback-stub.o [1]
emberAllocateLinkedBuffers
                        0x00008063    0xba  Code  Gb  packet-buffer.o [71]
emberAppLinkKeyRequestPolicy
                        0x2003e3d9     0x1  Data  Gb  ember-configuration.o [1]
emberAppendPgmStringToLinkedBuffers
                        0x0000835d    0x14  Code  Gb  packet-buffer.o [71]
emberAppendSourceRouteHandler
                        0x0000c761     0x4  Code  Gb  ember-configuration.o [1]
emberAppendToLinkedBuffers
                        0x00008359     0x4  Code  Gb  packet-buffer.o [71]
emberApsAckTimeoutMs    0x2003e3a4     0x2  Data  Gb  ember-configuration.o [1]
emberBindingIsActive    0x0000fcf7     0x4  Code  Gb  aps-retry.o [71]
emberBindingTableSize   0x2003e3d5     0x1  Data  Gb  ember-configuration.o [1]
emberBootloadTransmitCompleteHandler
                        0x0000c74f     0x2  Code  Gb  ember-configuration.o [1]
emberCalibrateCurrentChannel
                        0x00005333    0x14  Code  Gb  phy.o [71]
emberChangeSourceRouteHandler
                        0x0000c75d     0x2  Code  Gb  ember-configuration.o [1]
emberChildId            0x0000d121     0x2  Code  Gb  child-stub.o [71]
emberChildIndex         0x0000daf1    0x48  Code  Gb  child-table.o [71]
emberChildTableSize     0x2003e3cf     0x1  Data  Gb  ember-configuration.o [1]
emberClearBindingTable  0x00007dd5    0x34  Code  Gb  binding-table.o [45]
emberCommandActionHandler
                        0x000164f9    0x18  Code  Gb  core-cli.o [1]
emberCommandErrorHandler
                        0x00005099    0x68  Code  Gb  command-interpreter2.o [1]
emberCommandErrorNames  0x2003e240    0x20  Data  Gb  command-interpreter2.o [1]
emberCommandInterpreter2Configuration
                        0x2003ff2f     0x1  Data  Gb  command-interpreter2.o [1]
emberCommandName        0x000049dd     0xa  Code  Gb  command-interpreter2.o [1]
emberCommandReaderInit  0x000049e7    0x2c  Code  Gb  command-interpreter2.o [1]
emberCommandTable       0x000306d8    0xfc  Data  Gb  cli.o [1]
emberCommandTableInterpanCommands
                        0x000306a8    0x30  Data  Lc  cli.o [1]
emberCommandTableNetworkCommands
                        0x00030600    0xa8  Data  Lc  cli.o [1]
emberCommandTableNetworkFindCommands
                        0x000305dc    0x24  Data  Lc  cli.o [1]
emberCommandTableOptionApsretryCommands
                        0x00030570    0x30  Data  Lc  cli.o [1]
emberCommandTableOptionBindingTableCommands
                        0x00030540    0x30  Data  Lc  cli.o [1]
emberCommandTableOptionCommands
                        0x000305a0    0x3c  Data  Lc  cli.o [1]
emberCommandTablePluginBulbPwmCommands
                        0x00030474    0x78  Data  Lc  cli.o [1]
emberCommandTablePluginCommands
                        0x000304ec    0x54  Data  Lc  cli.o [1]
emberCommandTablePluginConfigurationServerCommands
                        0x00030444    0x30  Data  Lc  cli.o [1]
emberCommandTablePluginMfglibCommands
                        0x00030384    0xc0  Data  Lc  cli.o [1]
emberCommandTablePluginMfglibSendCommands
                        0x00030354    0x30  Data  Lc  cli.o [1]
emberCommandTablePluginMfglibStreamCommands
                        0x00030330    0x24  Data  Lc  cli.o [1]
emberCommandTablePluginMfglibToneCommands
                        0x0003030c    0x24  Data  Lc  cli.o [1]
emberCommandTablePluginOtaBootloadCommands
                        0x000302f4    0x18  Data  Lc  cli.o [1]
emberCommandTablePluginOtaClientCommands
                        0x00030270    0x84  Data  Lc  cli.o [1]
emberCommandTablePluginOtaStorageCommonCommands
                        0x00030228    0x48  Data  Lc  cli.o [1]
emberCommandTablePrintCommands
                        0x00030210    0x18  Data  Lc  cli.o [1]
emberCommandTableZclCommands
                        0x000301e0    0x30  Data  Lc  cli.o [1]
emberCommandTableZclGlobalCommands
                        0x00030144    0x9c  Data  Lc  cli.o [1]
emberCommandTableZclIdentifyCommands
                        0x00030120    0x24  Data  Lc  cli.o [1]
emberCommandTableZclTestCommands
                        0x00030108    0x18  Data  Lc  cli.o [1]
emberCommandTableZclTestResponseCommands
                        0x000300e4    0x24  Data  Lc  cli.o [1]
emberCommandTableZdoCommands
                        0x00030018    0xcc  Data  Lc  cli.o [1]
emberCommandTableZdoInClListCommands
                        0x0002fff4    0x24  Data  Lc  cli.o [1]
emberCommandTableZdoNwkUpdCommands
                        0x0002ffc4    0x30  Data  Lc  cli.o [1]
emberCommandTableZdoOutClListCommands
                        0x0002ffa0    0x24  Data  Lc  cli.o [1]
emberCommandTableZdoUnbindCommands
                        0x0002ff7c    0x24  Data  Lc  cli.o [1]
emberCopyBigEndianEui64Argument
                        0x00004f73    0x26  Code  Gb  command-interpreter2.o [1]
emberCopyBufferBytes    0x000085f9    0x62  Code  Gb  packet-buffer.o [71]
emberCopyLinkedBuffers  0x0000847f    0x42  Code  Gb  packet-buffer.o [71]
emberCopyStringArgument
                        0x00004f29    0x4a  Code  Gb  command-interpreter2.o [1]
emberCounterHandler     0x0000c76b     0x2  Code  Gb  ember-configuration.o [1]
emberCurrentCommand     0x2003f2c0     0x4  Data  Gb  command-interpreter2.o [1]
emberCurrentStackTasks  0x00001d15    0xba  Code  Gb  zigbee-stack.o [71]
emberDebugAssert        0x0000e53f     0xa  Code  Gb  debug.o [52]
emberDebugHandler       0x0000c759     0x2  Code  Gb  ember-configuration.o [1]
emberDebugPrintf        0x0000a8a7     0x6  Code  Gb  debug-extended-stub.o [53]
emberDebugReportRestore
                        0x0000a8a5     0x2  Code  Gb  debug-extended-stub.o [53]
emberDeleteBinding      0x00007b8b    0x5a  Code  Gb  binding-table.o [45]
emberEmbernetPassthroughSourceAddress
                        0x2003e3c0     0x2  Data  Gb  mac-header.o [71]
emberEndDeviceBindRequest
                        0x000077d3    0xd4  Code  Gb  zigbee-device-library.o [1]
emberEndDevicePollTimeout
                        0x2003e3df     0x1  Data  Gb  ember-configuration.o [1]
emberEndDevicePollTimeoutShift
                        0x2003e3e0     0x1  Data  Gb  ember-configuration.o [1]
emberEndpointCount      0x2003ff2d     0x1  Data  Gb  attribute-storage.o [1]
emberEnergyScanRequest  0x0001a793    0x60  Code  Gb  zigbee-device-util.o [71]
emberEnergyScanResultHandler
                        0x00000b9b    0x12  Code  Gb  af-main-soc.o [1]
emberFetchLowHighInt16u
                        0x0000c77d     0x6  Code  Gb  byte-utilities.o [71]
emberFillLinkedBuffers  0x0000823f    0x38  Code  Gb  packet-buffer.o [71]
emberFillStackBuffer    0x000081fd    0x42  Code  Gb  packet-buffer.o [71]
emberFindAndRejoinNetwork
                        0x00008c0b     0x4  Code  Gb  association.o [71]
emberFindAndRejoinNetworkWithNodeType
                        0x00008c0f    0x22  Code  Gb  association.o [71]
emberFindAndRejoinNetworkWithReason
                        0x00008c31    0x78  Code  Gb  association.o [71]
emberFindKeyTableEntry  0x0000decf     0x4  Code  Gb  aps-keys-full-stub.o [68]
emberFragmentWindowSize
                        0x2003e3d8     0x1  Data  Gb  ember-configuration.o [1]
emberGenerateRandomKey  0x00006805    0x12  Code  Gb  ember-stack-common.o [71]
emberGetAddressTableRemoteEui64
                        0x000073c7    0x1c  Code  Gb  address-table.o [71]
emberGetAddressTableRemoteNodeId
                        0x000073e3     0xc  Code  Gb  address-table.o [71]
emberGetBinding         0x00007adf    0x16  Code  Gb  binding-table.o [45]
emberGetBindingIndex    0x00007139    0x10  Code  Gb  application-support.o [71]
emberGetBindingRemoteNodeId
                        0x00007ad3     0xc  Code  Gb  binding-table.o [45]
emberGetCallbackNetwork
                        0x00007f65     0x4  Code  Gb  ember-multi-network-stub.o [63]
emberGetChildData       0x0000d123     0x4  Code  Gb  child-stub.o [71]
emberGetCurrentNetwork  0x00007f61     0x4  Code  Gb  ember-multi-network-stub.o [63]
emberGetCurrentSecurityState
                        0x00000cf1    0x3e  Code  Gb  aps-security.o [67]
emberGetEndpoint        0x00000887    0x40  Code  Gb  af-main-soc.o [1]
emberGetEndpointCluster
                        0x0000092b    0x42  Code  Gb  af-main-soc.o [1]
emberGetEndpointDescription
                        0x000008c7    0x5c  Code  Gb  af-main-soc.o [1]
emberGetExtendedPanId   0x00009b0f    0x16  Code  Gb  association.o [71]
emberGetExtendedSecurityBitmask
                        0x00000cdd    0x14  Code  Gb  aps-security.o [67]
emberGetExtendedTimeout
                        0x000075f3    0x34  Code  Gb  address-table.o [71]
emberGetKey             0x00001fed    0xcc  Code  Gb  aps-keys.o [67]
emberGetLastHopLqi      0x0000735d     0x4  Code  Gb  zigbee-dispatch.o [71]
emberGetLastHopRssi     0x00007361     0x2  Code  Gb  zigbee-dispatch.o [71]
emberGetLibraryStatus   0x0000e36d    0x40  Code  Gb  ember-library.o [71]
emberGetLinkedBuffersByte
                        0x00008469     0xa  Code  Gb  packet-buffer.o [71]
emberGetLinkedBuffersLowHighInt16u
                        0x000085b5    0x10  Code  Gb  packet-buffer.o [71]
emberGetLinkedBuffersPointer
                        0x0000841d    0x2c  Code  Gb  packet-buffer.o [71]
emberGetMfgSecurityConfig
                        0x000100e9    0x44  Code  Gb  security-config-mfg-3xx.o [67]
emberGetNetworkParameters
                        0x00006791    0x56  Code  Gb  ember-stack-common.o [71]
emberGetNodeId          0x00001edf     0x8  Code  Gb  zigbee-stack.o [71]
emberGetNodeType        0x00009ad1    0x3e  Code  Gb  association.o [71]
emberGetPanId           0x00001eef     0x8  Code  Gb  zigbee-stack.o [71]
emberGetParentEui64     0x000066e5     0x8  Code  Gb  ember-stack-common.o [71]
emberGetParentNodeId    0x000066dd     0x8  Code  Gb  ember-stack-common.o [71]
emberGetRadioChannel    0x00006843     0x8  Code  Gb  ember-stack-common.o [71]
emberGetSender          0x0000736b    0x10  Code  Gb  zigbee-dispatch.o [71]
emberGetSenderEui64     0x0000737b    0x1e  Code  Gb  zigbee-dispatch.o [71]
emberGetTxPowerMode     0x0000685d     0x4  Code  Gb  ember-stack-common.o [71]
emberHaveLinkKey        0x0000239d    0x14  Code  Gb  aps-keys.o [67]
emberHmacAesHash        0x0000de69    0x62  Code  Gb  hmac.o [67]
emberIdConflictHandler  0x0000c771     0x2  Code  Gb  ember-configuration.o [1]
emberIeeeAddressRequest
                        0x0001a787     0xc  Code  Gb  zigbee-device-util.o [71]
emberIncomingBootloadMessageHandler
                        0x0000c74d     0x2  Code  Gb  ember-configuration.o [1]
emberIncomingCommandHandler
                        0x0000c76d     0x2  Code  Gb  ember-configuration.o [1]
emberIncomingManyToOneRouteRequestHandler
                        0x0000c765     0x2  Code  Gb  ember-configuration.o [1]
emberIncomingMessageHandler
                        0x000009bd    0x46  Code  Gb  af-main-soc.o [1]
emberIncomingRouteErrorHandler
                        0x0000c767     0x2  Code  Gb  ember-configuration.o [1]
emberIncomingRouteRecordHandler
                        0x0000c75f     0x2  Code  Gb  ember-configuration.o [1]
emberInit               0x00001a8d   0x196  Code  Gb  zigbee-stack.o [71]
emberIsZllNetwork       0x0000eea5     0x4  Code  Gb  zll-stubs.o [72]
emberJoinNetwork        0x0000897d    0x50  Code  Gb  association.o [71]
emberLeaveNetwork       0x0000cd4f    0x18  Code  Gb  leave.o [71]
emberLeaveRequest       0x00001a61    0x2a  Code  Gb  zigbee-device-common.o [1]
emberLookupEui64ByNodeId
                        0x00001e75    0x6a  Code  Gb  zigbee-stack.o [71]
emberLookupNodeIdByEui64
                        0x00001e41    0x34  Code  Gb  zigbee-stack.o [71]
emberMacFilterMatchMessageHandler
                        0x0000c751     0x4  Code  Gb  ember-configuration.o [1]
emberMacIndirectTimeout
                        0x2003e3a8     0x2  Data  Gb  ember-configuration.o [1]
emberMacPassthroughFilterHandler
                        0x0000c773     0x4  Code  Gb  ember-configuration.o [1]
emberMacPassthroughFlags
                        0x2003ff5b     0x1  Data  Gb  mac-header.o [71]
emberMacPassthroughMessageHandler
                        0x0000c755     0x2  Code  Gb  ember-configuration.o [1]
emberMarkTaskIdle       0x0000e973    0x7e  Code  Gb  event-control.o [71]
emberMatchDescriptorsRequest
                        0x000076bd   0x10e  Code  Gb  zigbee-device-library.o [1]
emberMaximumApsPayloadLength
                        0x000070e1     0xe  Code  Gb  application-support.o [71]
emberMessageBufferContents
                        0x0000804d     0xc  Code  Gb  packet-buffer.o [71]
emberMessageSentHandler
                        0x00000a03    0x36  Code  Gb  af-main-soc.o [1]
emberMobileNodePollTimeout
                        0x2003e3de     0x1  Data  Gb  ember-configuration.o [1]
emberMsToNextEvent      0x0000e8c5     0x4  Code  Gb  event-control.o [71]
emberMsToNextEventExtended
                        0x0000e87b    0x4a  Code  Gb  event-control.o [71]
emberMulticastTable     0x2003e288     0x4  Data  Gb  ember-configuration.o [1]
emberMulticastTableSize
                        0x2003e3d1     0x1  Data  Gb  ember-configuration.o [1]
emberNetworkAddressRequest
                        0x0001a783     0x4  Code  Gb  zigbee-device-util.o [71]
emberNetworkFoundHandler
                        0x00000b5d    0x2a  Code  Gb  af-main-soc.o [1]
emberNetworkInitExtended
                        0x00008b5b    0xb0  Code  Gb  association.o [71]
emberNetworkState       0x0000676f     0xc  Code  Gb  ember-stack-common.o [71]
emberNetworkStates      0x2003e134    0x30  Data  Gb  bulb-ui.o [8]
emberNextZigDevRequestSequence
                        0x000019a1    0x14  Code  Gb  zigbee-device-common.o [1]
emberOrphanNotificationHandler
                        0x0000c769     0x2  Code  Gb  ember-configuration.o [1]
emberPendingAckedMessages
                        0x0000fd03    0x30  Code  Gb  aps-retry.o [71]
emberPermitJoining      0x0000893b    0x38  Code  Gb  association.o [71]
emberPluginNetworkSteeringDistributedKey
                        0x2003e890    0x10  Data  Gb  network-steering.o [29]
emberPollCompleteHandler
                        0x000164f1     0x6  Code  Gb  polling-soc.o [18]
emberPollForData        0x0000bf73    0x52  Code  Gb  network.o [71]
emberPollHandler        0x0000c75b     0x2  Code  Gb  ember-configuration.o [1]
emberPrintCommandTable  0x0000507d    0x1c  Code  Gb  command-interpreter2.o [1]
emberPrintCommandUsage  0x0000502b    0x38  Code  Gb  command-interpreter2.o [1]
emberPrintCommandUsageNotes
                        0x00005063     0xc  Code  Gb  command-interpreter2.o [1]
emberProcessCommandString
                        0x00004a59   0x1b4  Code  Gb  command-interpreter2.o [1]
emberProxyBroadcast     0x00006c6d    0x5e  Code  Gb  application-support.o [71]
emberRadioNeedsCalibratingHandler
                        0x00018ed5     0x4  Code  Gb  ember-base-configuration.o [1]
emberRawTransmitCompleteHandler
                        0x0000c757     0x2  Code  Gb  ember-configuration.o [1]
emberRemoteDeleteBindingHandler
                        0x00000867    0x20  Code  Gb  af-main-soc.o [1]
emberRemoteSetBindingHandler
                        0x00000809    0x5e  Code  Gb  af-main-soc.o [1]
emberRequestLinkKey     0x000023c5    0xd0  Code  Gb  aps-keys.o [67]
emberReservedMobileChildEntries
                        0x2003ff35     0x1  Data  Gb  ember-configuration.o [1]
emberRtosIdleHandler    0x0000c777     0x4  Code  Gb  ember-configuration.o [1]
emberRtosStackWakeupIsrHandler
                        0x0000c77b     0x2  Code  Gb  ember-configuration.o [1]
emberRunEvents          0x0000e8c9    0x30  Code  Gb  event-control.o [71]
emberRunTask            0x0000e8ff    0x24  Code  Gb  event-control.o [71]
emberScanCompleteHandler
                        0x00000b87    0x14  Code  Gb  af-main-soc.o [1]
emberSecurityLevel      0x000066ed     0x8  Code  Gb  ember-stack-common.o [71]
emberSendBroadcast      0x00006c29    0x44  Code  Gb  application-support.o [71]
emberSendMulticast      0x00006d07    0x24  Code  Gb  application-support.o [71]
emberSendMulticastWithAlias
                        0x00006cd1    0x36  Code  Gb  application-support.o [71]
emberSendParentAnnouncement
                        0x0001a87b    0x5c  Code  Gb  zigbee-device-util.o [71]
emberSendRemoveDevice   0x0000c92f    0x6e  Code  Gb  trust-center-util.o [67]
emberSendUnicast        0x00006b69    0xb4  Code  Gb  application-support.o [71]
emberSendZigDevBindRequest
                        0x000019e7    0x62  Code  Gb  zigbee-device-common.o [1]
emberSendZigDevRequest  0x000078c7    0x3a  Code  Gb  zigbee-device-library.o [1]
emberSendZigDevRequestTarget
                        0x000019bb    0x12  Code  Gb  zigbee-device-common.o [1]
emberSerialBufferTick   0x00002e69     0x2  Code  Gb  serial.o [1]
emberSerialGuaranteedPrintf
                        0x00002e45    0x18  Code  Gb  serial.o [1]
emberSerialInit         0x00002db9    0x6e  Code  Gb  serial.o [1]
emberSerialPrintCarriageReturn
                        0x00010831     0x4  Code  Gb  ember-printf.o [15]
emberSerialPrintf       0x00010859    0x10  Code  Gb  ember-printf.o [15]
emberSerialPrintfLine   0x0001083d    0x1c  Code  Gb  ember-printf.o [15]
emberSerialPrintfVarArg
                        0x00010869     0xa  Code  Gb  ember-printf.o [15]
emberSerialReadByte     0x00002e27     0xa  Code  Gb  serial.o [1]
emberSerialWaitSend     0x00002e3b     0xa  Code  Gb  serial.o [1]
emberSerialWriteData    0x00002e31     0xa  Code  Gb  serial.o [1]
emberSetBinding         0x00007af5    0x66  Code  Gb  binding-table.o [45]
emberSetExtendedSecurityBitmask
                        0x00000cab    0x32  Code  Gb  aps-security.o [67]
emberSetExtendedTimeout
                        0x0000762f    0x22  Code  Gb  address-table.o [71]
emberSetInitialSecurityState
                        0x00000bb9    0xf2  Code  Gb  aps-security.o [67]
emberSetLinkedBuffersByte
                        0x00008473     0xc  Code  Gb  packet-buffer.o [71]
emberSetLinkedBuffersLength
                        0x000083db    0x24  Code  Gb  packet-buffer.o [71]
emberSetLinkedBuffersLowHighInt16u
                        0x000085cd    0x16  Code  Gb  packet-buffer.o [71]
emberSetMessageBufferLength
                        0x00008059     0xa  Code  Gb  packet-buffer.o [71]
emberSetRadioPower      0x0000682f    0x14  Code  Gb  ember-stack-common.o [71]
emberSetTxPowerMode     0x00005235    0x22  Code  Gb  phy.o [71]
emberSignedCommandArgument
                        0x00004edf    0x1e  Code  Gb  command-interpreter2.o [1]
emberSimpleDescriptorRequest
                        0x000019cd    0x12  Code  Gb  zigbee-device-common.o [1]
emberStackIsPerformingRejoin
                        0x00008803    0x1a  Code  Gb  association.o [71]
emberStackIsUp          0x0000677b    0x16  Code  Gb  ember-stack-common.o [71]
emberStackPowerDown     0x00001dcf    0x2c  Code  Gb  zigbee-stack.o [71]
emberStackPowerUp       0x00001e03    0x3e  Code  Gb  zigbee-stack.o [71]
emberStackProfile       0x00001eff     0x8  Code  Gb  zigbee-stack.o [71]
emberStackStatus        0x2003e164    0x70  Data  Gb  bulb-ui.o [8]
emberStackStatusHandler
                        0x0000096d    0x14  Code  Gb  af-main-soc.o [1]
emberStackTokenChangedHandler
                        0x0000c76f     0x2  Code  Gb  ember-configuration.o [1]
emberStartScan          0x0001b551    0xac  Code  Gb  scan.o [71]
emberStartWritingStackTokens
                        0x0000de05    0x24  Code  Gb  token-cache.o [71]
emberStoreLowHighInt16u
                        0x0000c78b     0x8  Code  Gb  byte-utilities.o [71]
emberStringCommandArgument
                        0x00004efd    0x28  Code  Gb  command-interpreter2.o [1]
emberSwitchNetworkKeyHandler
                        0x0000c74b     0x2  Code  Gb  ember-configuration.o [1]
emberTableRequest       0x00001a49    0x18  Code  Gb  zigbee-device-common.o [1]
emberTaskInit           0x0000e92f    0x44  Code  Gb  event-control.o [71]
emberTick               0x00001c35    0xe0  Code  Gb  zigbee-stack.o [71]
emberTransientKeyTimeoutS
                        0x2003e3a6     0x2  Data  Gb  ember-configuration.o [1]
emberTrustCenterJoinHandler
                        0x0001c987    0x2c  Code  Gb  af-trust-center.o [1]
emberTrustCenterLinkKeyRequestPolicy
                        0x2003ff33     0x1  Data  Gb  ember-configuration.o [1]
emberUnsignedCommandArgument
                        0x00004edb     0x4  Code  Gb  command-interpreter2.o [1]
emberVersion            0x00031828     0x8  Data  Gb  ember-version.o [71]
emberZigbeeKeyEstablishmentHandler
                        0x00000bb5     0x4  Code  Gb  af-main-soc.o [1]
emberZigbeeLeave        0x0000cdfb     0x8  Code  Gb  leave.o [71]
emberZigbeeRemoveChild  0x0000cfe5    0x3e  Code  Gb  leave.o [71]
enableRxIrq             0x00010c45    0x96  Code  Lc  com.o [14]
enabledCallbacks        0x2003fcec     0x4  Data  Lc  bufc.o [60]
enabledCallbacks        0x2003e354     0x4  Data  Lc  rail_rf_hal.o [60]
enabledCallbacks        0x2003fd98     0x4  Data  Lc  generic_phy.o [60]
enablementBytes         0x2003e3e2     0x1  Data  Lc  print.o [1]
encryptNonce            0x00009f91    0x24  Code  Lc  crypto.o [71]
endEraseOffset          0x2003e838     0x4  Data  Lc  ota-storage-eeprom-page-erase.o [37]
energyScanMaxRssiDetected
                        0x2003f461     0x1  Data  Lc  scan.o [71]
energyScanResultsBuffer
                        0x2003e3ea     0x1  Data  Lc  scan.o [71]
enforceMacChannelMask   0x2003e3ed     0x1  Data  Lc  phy.o [71]
ensureErasedFlash       0x0001cff9    0x40  Code  Lc  sim-eeprom2-internal.o [70]
ensureErasedVpState     0x0001d039    0x2a  Code  Gb  sim-eeprom2-internal.o [70]
entry                   0x0003184c     0xc  Data  Lc  rail_ieee802154.o [60]
eraseAllSimEe           0x0001d063    0x26  Code  Lc  sim-eeprom2-internal.o [70]
eraseOneHpageOfVpage    0x0001e05d    0x7a  Code  Lc  sim-eeprom2-internal.o [70]
eraseOperation          0x00024059    0x88  Code  Lc  ota-storage-eeprom-page-erase.o [37]
errors                  0x2003fef6     0x1  Data  Lc  ota-client.o [32]
euiLookup               0x0001544b    0x3c  Code  Lc  ota-client.o [32]
euiLookupErrorOccurred  0x00015441     0xa  Code  Lc  ota-client.o [32]
eventHandler            0x00022b01    0xbc  Code  Gb  bulb-pwm-driver-blink.o [7]
eventStartTime          0x2003f744     0x4  Data  Lc  retry.o [71]
executeCallback         0x000138f9    0x28  Code  Lc  service-discovery-common.o [1]
executeTimerCallbacks   0x00011b03    0x2c  Code  Lc  rtcdriver.o [16]
fault                   0x0002a0a5          Code  Gb  faults-v7m.o [14]
fcdConfigs              0x2003fee8     0x2  Data  Gb  rail_rf_hal.o [60]
fillBuffer              0x00022577    0x34  Code  Lc  manufacturing-library-cli.o [27]
filterPass              0x000175e3     0x8  Code  Gb  rail_rf_hal.o [60]
findBroadcastTableEntry
                        0x0000eeb5    0x48  Code  Lc  broadcast.o [71]
findClusterEndpointIndex
                        0x0000455f    0x52  Code  Lc  attribute-storage.o [1]
findCurrPage            0x0001d181   0x186  Code  Lc  sim-eeprom2-internal.o [70]
findDatagramDestination
                        0x0000f867   0x110  Code  Lc  aps-retry.o [71]
findEventContext        0x00006459    0x36  Code  Lc  af-event.o [1]
findGroupIndex          0x0002208b    0x2a  Code  Lc  groups-server.o [21]
findIndexFromEndpoint   0x000045b1    0x3a  Code  Lc  attribute-storage.o [1]
findJoinableNetworkCommand
                        0x0002a6e1    0x10  Code  Gb  network-cli.o [1]
findLongAddressEntry    0x000073ef    0x4a  Code  Lc  address-table.o [71]
findNeighborIndex       0x0000d18b    0x34  Code  Lc  neighbor.o [71]
findSimEe1TokenData     0x000282d9    0x84  Code  Gb  sim-eeprom2-internal-1to2upgrade.o [69]
findSimEe1TokenDataCore
                        0x00028069   0x240  Code  Gb  sim-eeprom2-internal-1to2upgrade.o [69]
findTransientLinkKey    0x0000d85f    0x52  Code  Lc  aps-keys-transient.o [67]
findUnusedPanIdCommand  0x0002a6f1     0xe  Code  Gb  network-cli.o [1]
finishNetworkShutdown   0x0000ce39    0x7e  Code  Lc  leave.o [71]
finishPendingAckedMessage
                        0x0000fa05   0x1ba  Code  Lc  aps-retry.o [71]
firstByteOfArg          0x00004c37    0x18  Code  Lc  command-interpreter2.o [1]
fixedEepromInfo         0x2003e970    0x18  Data  Gb  bootloader-interface-app.o [19]
flashWaitStateControl   0x00019047    0x70  Code  Lc  em_cmu.o [17]
flashWaitStateMax       0x000190b7     0xe  Code  Lc  em_cmu.o [17]
flashWsTable            0x0002d83c    0x28  Data  Lc  em_cmu.o [17]
forceIrCal              0x2003ff5a     0x1  Data  Lc  phy.o [60]
forwardTunneledCommand  0x00000f59    0xa8  Code  Lc  aps-security.o [67]
fragmentDelay           0x2003f591     0x1  Data  Lc  aps-retry.o [71]
frameDet0               0x000176ab     0x6  Code  Gb  rail_rf_hal.o [60]
frameDet1               0x000176b1     0x6  Code  Gb  rail_rf_hal.o [60]
framePendingSetInOutgoingAck
                        0x2003f4ca     0x1  Data  Lc  phy.o [71]
freelist                0x2003e3eb     0x1  Data  Lc  packet-buffer.o [71]
freq                    0x2003ed7c     0x4  Data  Lc  ustimer.o [16]
gConfiguredKey          0x2003e880    0x10  Data  Lc  network-steering.o [29]
gCurrentModulation      0x2003e34c     0x1  Data  Gb  pa.o [60]
gDesiredRampTime        0x2003e350     0x4  Data  Gb  pa.o [60]
gExtendedPanIdToFilterOn
                        0x2003e878     0x8  Data  Lc  network-steering.o [29]
gFilterByExtendedPanId  0x2003fefb     0x1  Data  Lc  network-steering.o [29]
gPaConfig               0x2003e344     0x8  Data  Gb  pa.o [60]
gUseConfiguredKey       0x2003fefc     0x1  Data  Lc  network-steering.o [29]
generateCreatorInfo     0x0001cfbd    0x22  Code  Gb  sim-eeprom2-internal.o [70]
generatedAttributes     0x0002f600   0x2b8  Data  Gb  attribute-storage.o [1]
generatedClusters       0x0002f8b8    0xdc  Data  Gb  attribute-storage.o [1]
generatedDefaults       0x0002f580    0x58  Data  Gb  attribute-storage.o [1]
generatedEmberAfEndpointTypes
                        0x0002f994     0x8  Data  Gb  attribute-storage.o [1]
genericSeqProg          0x0002bb00  0x1018  Data  Gb  generic_efr32xg12_seq.o [60]
genericSeqProg_size     0x0002cb18     0x4  Data  Gb  generic_efr32xg12_seq.o [60]
getBeaconPayload        0x000087b9    0x4a  Code  Lc  association.o [71]
getByteMaskIndexFromEeprom
                        0x0002417d    0x5a  Code  Lc  ota-storage-eeprom-page-erase.o [37]
getByteMaskIndexFromOtaOffset
                        0x000241ed    0x28  Code  Lc  ota-storage-eeprom-page-erase.o [37]
getComHandleFromPort    0x00010ac9    0x1c  Code  Lc  com.o [14]
getCurrentImageId       0x00023e0d    0x20  Code  Lc  ota-storage-simple.o [36]
getCurrentOffset        0x000152c9    0x2a  Code  Lc  ota-client.o [32]
getHfxoTuningMode       0x000190d9     0xc  Code  Lc  em_cmu.o [17]
getIdentifyState        0x00029b15    0x18  Code  Lc  identify.o [24]
getInputFifoSpace       0x00010af9    0x14  Code  Lc  com.o [14]
getLittleEndianInt16uFromBlock
                        0x00023e35     0xc  Code  Lc  ota-storage-simple.o [36]
getLittleEndianInt32uFromBlock
                        0x00023e41    0x16  Code  Lc  ota-storage-simple.o [36]
getManufacturerCode     0x000042c9    0x1e  Code  Lc  attribute-storage.o [1]
getMessageSentCallback  0x00003829    0x26  Code  Lc  af-main-common.o [1]
getMessageSentCallbackIndex
                        0x000037dd    0x1c  Code  Lc  af-main-common.o [1]
getMultiNetworkTokenAddress
                        0x0000dcf1    0x22  Code  Lc  token-cache.o [71]
getNestedCommand        0x00004c0d    0x1c  Code  Lc  command-interpreter2.o [1]
getNextCandidate        0x00002589    0x3e  Code  Lc  network-steering.o [29]
getNextChannel          0x00002885    0x6c  Code  Lc  network-steering.o [29]
getNonvolatileBinding   0x00007955    0x2a  Code  Lc  binding-table.o [45]
getOffsetFromByteMaskIndex
                        0x000241d7    0x16  Code  Lc  ota-storage-eeprom-page-erase.o [37]
getOutputFifoSpace      0x00010ae5    0x14  Code  Lc  com.o [14]
getPaConfig             0x00005347    0x12  Code  Lc  phy.o [71]
getPartnerLinkKey       0x000152c7     0x2  Code  Lc  ota-client.o [32]
getRegIshUpperVal       0x000190c7    0x12  Code  Lc  em_cmu.o [17]
getServerMask           0x00027679    0x26  Code  Gb  zigbee-device.o [71]
getState                0x00014865    0x1c  Code  Lc  level-control.o [26]
getTrustCenterToken     0x000021d9     0xc  Code  Lc  aps-keys.o [67]
getUartHandleFromPort   0x00010ce3    0x12  Code  Lc  com.o [14]
getUpgradeActivationPolicy
                        0x00015f69     0x4  Code  Lc  ota-client.o [32]
getUpgradeTimeoutPolicy
                        0x00015f6d     0x4  Code  Lc  ota-client.o [32]
globalApsFrame          0x2003f408     0xc  Data  Gb  zcl-cli.o [1]
globalCalType           0x2003fdc4     0x1  Data  Lc  ir_cal.o [60]
gotoNextChannel         0x000025c7    0x6e  Code  Gb  network-steering.o [29]
gpioCallbacks           0x2003ecb4    0x40  Data  Lc  gpiointerrupt.o [16]
guardRegionPlaceHolder  0x20000f60    0x20  Data  Gb  cstartup-common.o [14]
halAppAddressTable      0x00000000    0xac  Data  Gb  cstartup-common.o [14]
halAppBootloaderEraseRawStorage
                        0x00028d77    0x26  Code  Gb  bootloader-interface-app.o [19]
halAppBootloaderImageIsValid
                        0x00028cbd    0x36  Code  Gb  bootloader-interface-app.o [19]
halAppBootloaderImageIsValidReset
                        0x00028c7d    0x34  Code  Gb  bootloader-interface-app.o [19]
halAppBootloaderInfo    0x00028bf9    0x7e  Code  Gb  bootloader-interface-app.o [19]
halAppBootloaderInit    0x00028bdd    0x1c  Code  Gb  bootloader-interface-app.o [19]
halAppBootloaderInstallNewImage
                        0x00028cf3    0x2a  Code  Gb  bootloader-interface-app.o [19]
halAppBootloaderReadRawStorage
                        0x00028d4b    0x24  Code  Gb  bootloader-interface-app.o [19]
halAppBootloaderStorageBusy
                        0x00028dbd    0x20  Code  Gb  bootloader-interface-app.o [19]
halAppBootloaderWriteRawStorage
                        0x00028d1d    0x24  Code  Gb  bootloader-interface-app.o [19]
halBootloaderGetInstalledType
                        0x00029e75    0x2c  Code  Gb  bootloader-interface.o [19]
halBulbPwmDriverBlinkInit
                        0x00022bbd    0x2e  Code  Gb  bulb-pwm-driver-blink.o [7]
halBulbPwmDriverBlinkOffCallback
                        0x00021265    0x16  Code  Gb  led-temp-pwm.o [25]
halBulbPwmDriverBlinkOnCallback
                        0x0002124b    0x14  Code  Gb  led-temp-pwm.o [25]
halBulbPwmDriverBlinkStartCallback
                        0x0002127b     0x8  Code  Gb  led-temp-pwm.o [25]
halBulbPwmDriverBlinkStopCallback
                        0x00021283     0x8  Code  Gb  led-temp-pwm.o [25]
halBulbPwmDriverFrequencyCallback
                        0x00010573     0xa  Code  Gb  configuration-server.o [10]
halBulbPwmDriverInitCompleteCallback
                        0x00021247     0x4  Code  Gb  led-temp-pwm.o [25]
halBulbPwmDriverInitialize
                        0x00020aab    0x16  Code  Gb  bulb-pwm-driver-efr32.o [7]
halBulbPwmDriverLedBlink
                        0x00022bfb     0x4  Code  Gb  bulb-pwm-driver-blink.o [7]
halBulbPwmDriverLedBlinkPattern
                        0x00022bf3     0x4  Code  Gb  bulb-pwm-driver-blink.o [7]
halBulbPwmDriverLedOff  0x00022c03     0x4  Code  Gb  bulb-pwm-driver-blink.o [7]
halBulbPwmDriverLedOn   0x00022c0b     0x4  Code  Gb  bulb-pwm-driver-blink.o [7]
halBulbPwmDriverSetPwmLevel
                        0x00020ad9     0x2  Code  Gb  bulb-pwm-driver-efr32.o [7]
halBulbPwmDriverStatusBlink
                        0x00022bff     0x4  Code  Gb  bulb-pwm-driver-blink.o [7]
halBulbPwmDriverStatusBlinkPattern
                        0x00022bf7     0x4  Code  Gb  bulb-pwm-driver-blink.o [7]
halBulbPwmDriverStatusLedOff
                        0x00020adf     0x2  Code  Gb  bulb-pwm-driver-efr32.o [7]
halBulbPwmDriverStatusLedOn
                        0x00020add     0x2  Code  Gb  bulb-pwm-driver-efr32.o [7]
halBulbPwmDriverStatusOff
                        0x00022c07     0x4  Code  Gb  bulb-pwm-driver-blink.o [7]
halBulbPwmDriverStatusOn
                        0x00022c0f     0x4  Code  Gb  bulb-pwm-driver-blink.o [7]
halBulbPwmDriverTicksPerMicrosecond
                        0x00020ad5     0x4  Code  Gb  bulb-pwm-driver-efr32.o [7]
halBulbPwmDriverTicksPerPeriod
                        0x00020ac1     0x6  Code  Gb  bulb-pwm-driver-efr32.o [7]
halBusFaultIsr          0x0002a091          Code  Gb  faults-v7m.o [14]
halButtonIsr            0x00003fbd     0x4  Code  Gb  af-main-common.o [1]
halButtonPinState       0x00020799    0x28  Code  Gb  button.o [14]
halButtonState          0x00020759    0x14  Code  Gb  button.o [14]
halClearLed             0x0001c4b7    0x10  Code  Gb  led.o [14]
halCommonCrc16          0x0001ce3d    0x26  Code  Gb  crc.o [1]
halCommonDelayMicroseconds
                        0x0000fd87     0x4  Code  Gb  micro-common-internal.o [58]
halCommonGetInt16uMillisecondTick
                        0x00012901     0xe  Code  Gb  system-timer.o [58]
halCommonGetInt16uQuarterSecondTick
                        0x0001290f    0x14  Code  Gb  system-timer.o [58]
halCommonGetInt32uMillisecondTick
                        0x00012923     0xe  Code  Gb  system-timer.o [58]
halCommonGetRandom      0x000105a9    0x1a  Code  Gb  random.o [1]
halCommonIdleForMilliseconds
                        0x0001295b    0x16  Code  Gb  system-timer.o [58]
halCommonMemCompare     0x00001961    0x18  Code  Gb  mem-util.o [1]
halCommonMemMove        0x000018cd    0x86  Code  Gb  mem-util.o [1]
halCommonMemPGMCompare  0x00001979    0x1a  Code  Gb  mem-util.o [1]
halCommonMemSet         0x00001953     0xe  Code  Gb  mem-util.o [1]
halConfigClockInit      0x000113d5    0x66  Code  Lc  hal-config.o [22]
halConfigInit           0x0001143b    0x68  Code  Gb  hal-config.o [22]
halConfigPowerDownGpio  0x00012b69     0x2  Code  Gb  hal-config-gpio.o [22]
halConfigPowerUpGpio    0x00012b6b     0x2  Code  Gb  hal-config-gpio.o [22]
halDebugMonitorIsr      0x0002a09d          Code  Gb  faults-v7m.o [14]
halEntryPoint           0x0002b7a1    0x10  Code  Gb  cstartup-iar.o [58]
halEntryPointMain       0x0002b7b1    0xf0  Code  Gb  cstartup-iar.o [58]
halGetEm2xxResetInfo    0x00002f59    0x42  Code  Gb  micro.o [14]
halGetExtendedBootloaderVersion
                        0x00029ead    0x22  Code  Gb  bootloader-interface.o [19]
halGetExtendedResetInfo
                        0x00003075     0x6  Code  Gb  cstartup-common.o [14]
halGetExtendedResetString
                        0x00002f3d    0x14  Code  Gb  micro.o [14]
halGetExtendedResetString::BOOTLOADERResetStringTable
                        0x0002e65c    0x20  Data  Lc  micro.o [14]
halGetExtendedResetString::BROWNOUTResetStringTable
                        0x0002e6f0    0x34  Data  Lc  micro.o [14]
halGetExtendedResetString::CRASHResetStringTable
                        0x0002e6ac     0x8  Data  Lc  micro.o [14]
halGetExtendedResetString::EXTERNALResetStringTable
                        0x0002e67c     0xc  Data  Lc  micro.o [14]
halGetExtendedResetString::FATALResetStringTable
                        0x0002e6c0    0x10  Data  Lc  micro.o [14]
halGetExtendedResetString::FAULTResetStringTable
                        0x0002e6d0    0x20  Data  Lc  micro.o [14]
halGetExtendedResetString::FIBResetStringTable
                        0x0002e604    0x58  Data  Lc  micro.o [14]
halGetExtendedResetString::FLASHResetStringTable
                        0x0002e6b4     0xc  Data  Lc  micro.o [14]
halGetExtendedResetString::POWERONResetStringTable
                        0x0002e688     0x8  Data  Lc  micro.o [14]
halGetExtendedResetString::SOFTWAREResetStringTable
                        0x0002e69c    0x10  Data  Lc  micro.o [14]
halGetExtendedResetString::UNKNOWNResetStringTable
                        0x0002e600     0x4  Data  Lc  micro.o [14]
halGetExtendedResetString::WATCHDOGResetStringTable
                        0x0002e690     0xc  Data  Lc  micro.o [14]
halGetExtendedResetString::extendedResetStringTablePtrs
                        0x0002e724    0x30  Data  Lc  micro.o [14]
halGetResetInfo         0x0000306d     0x8  Code  Gb  cstartup-common.o [14]
halGetResetString       0x00002f2b    0x12  Code  Gb  micro.o [14]
halGetResetString::resetStringTable
                        0x0002e5d0    0x30  Data  Lc  micro.o [14]
halHardFaultIsr         0x0002a08d          Code  Gb  faults-v7m.o [14]
halInit                 0x00002ecd    0x32  Code  Gb  micro.o [14]
halInternalAssertFailed
                        0x0000355d    0x30  Code  Gb  assert-crash-handlers.o [14]
halInternalAssertFault  0x00003559     0x4  Code  Lc  assert-crash-handlers.o [14]
halInternalButtonIndex  0x000206bf    0x1a  Code  Lc  button.o [14]
halInternalButtonIsr    0x000207d9    0x5e  Code  Gb  button.o [14]
halInternalButtonStateSet
                        0x0002076d    0x12  Code  Gb  button.o [14]
halInternalButtonToggleState
                        0x0002077f    0x1a  Code  Gb  button.o [14]
halInternalCStackBottom
                        0x2003e32c     0x4  Data  Lc  micro-internal.o [58]
halInternalClassifyReset
                        0x00002fd1    0x9c  Code  Gb  cstartup-common.o [14]
halInternalClassifyReset::resetEventTable
                        0x0002d968    0x24  Data  Lc  cstartup-common.o [14]
halInternalCrashHandler
                        0x000035a5   0x184  Code  Gb  assert-crash-handlers.o [14]
halInternalDisableMPU   0x00020a53     0xe  Code  Gb  mpu.o [14]
halInternalDisableWatchDog
                        0x0000636f    0x1c  Code  Gb  micro-common.o [14]
halInternalEm4Wakeup    0x000127d9    0x16  Code  Gb  sleep-efm32.o [14]
halInternalEnableMPU    0x00020a11    0x1c  Code  Gb  mpu.o [14]
halInternalEnableWatchDog
                        0x00006333    0x36  Code  Gb  micro-common.o [14]
halInternalFlashBlockRead
                        0x0001cef9    0x28  Code  Lc  sim-eeprom2-internal.o [70]
halInternalFlashBlockReadSimEe1
                        0x00028009    0x22  Code  Gb  sim-eeprom2-internal-1to2upgrade.o [69]
halInternalFlashErase   0x00019b8d    0x2c  Code  Gb  flash.o [58]
halInternalFlashWrite   0x00019c05    0x48  Code  Gb  flash.o [58]
halInternalGetCStackBottom
                        0x00012b23     0x6  Code  Gb  micro-internal.o [58]
halInternalGetCtuneToken
                        0x0000fd8b    0x36  Code  Gb  micro-common-internal.o [58]
halInternalGetMainStackBytesUsed
                        0x0000358d    0x18  Code  Lc  assert-crash-handlers.o [14]
halInternalGetMfgTokenData
                        0x00006571    0xb2  Code  Gb  mfg-token.o [14]
halInternalGetTokenData
                        0x0000e44d    0x22  Code  Gb  token.o [14]
halInternalIncrementCounterToken
                        0x0000e4c3    0x10  Code  Gb  token.o [14]
halInternalInitButton   0x000206d9    0x80  Code  Gb  button.o [14]
halInternalInitCStackRegion
                        0x00012a69    0x1a  Code  Gb  micro-internal.o [58]
halInternalInitLed      0x0001c465    0x42  Code  Gb  led.o [14]
halInternalLoadMPU      0x00020a39    0x1a  Code  Gb  mpu.o [14]
halInternalPa2p4GHzInit
                        0x2003e0dc     0x4  Data  Gb  micro.o [14]
halInternalPaSubGHzInit
                        0x2003eef0     0x4  Data  Gb  micro.o [14]
halInternalPtaOrRhoNotifyRadio
                        0x00012ce5     0xe  Code  Lc  coexistence-efr32.o [23]
halInternalResetWatchDog
                        0x00006369     0x6  Code  Gb  micro-common.o [14]
halInternalSetMPUGuardRegionStart
                        0x00020a61    0x1c  Code  Gb  mpu.o [14]
halInternalSetMfgTokenData
                        0x00006623    0xa0  Code  Gb  mfg-token.o [14]
halInternalSetTokenData
                        0x0000e46f    0x54  Code  Gb  token.o [14]
halInternalSimEeGetData
                        0x0001d68d    0x60  Code  Gb  sim-eeprom2-internal.o [70]
halInternalSimEeIncrementCounter
                        0x0001dfe5    0x78  Code  Gb  sim-eeprom2-internal.o [70]
halInternalSimEeSetData
                        0x0001dd35   0x1c0  Code  Gb  sim-eeprom2-internal.o [70]
halInternalSimEeStartup
                        0x0001ce65    0x94  Code  Gb  sim-eeprom2.o [41]
halInternalSimEeStartupCore
                        0x0001d4fd   0x190  Code  Gb  sim-eeprom2-internal.o [70]
halInternalSleep        0x00012819    0xb8  Code  Gb  sleep-efm32.o [14]
halInternalStartSystemTimer
                        0x00012931    0x22  Code  Gb  system-timer.o [58]
halInternalSysReset     0x000129f5    0x74  Code  Gb  micro-internal.o [58]
halInternalSysTickIsr   0x000129cd     0x4  Code  Gb  system-timer.o [58]
halInternalWatchDogEnabled
                        0x0000638b     0xe  Code  Gb  micro-common.o [14]
halMemoryFaultIsr       0x0002a095          Code  Gb  faults-v7m.o [14]
halNmiIsr               0x0002a089          Code  Gb  faults-v7m.o [14]
halPendSvIsr            0x0002a115          Code  Wk  isr-stubs.o [14]
halPowerDown            0x00002f07     0x4  Code  Gb  micro.o [14]
halPowerUp              0x00002f0b     0x4  Code  Gb  micro.o [14]
halPrintCrashData       0x00003353    0x4c  Code  Gb  diagnostic.o [14]
halPrintCrashDetails    0x000031cd   0x162  Code  Gb  diagnostic.o [14]
halPrintCrashSummary    0x00003091   0x13c  Code  Gb  diagnostic.o [14]
halPtaFilterPassReq     0x00012cbd    0x1e  Code  Gb  coexistence-efr32.o [23]
halPtaFrameDetectReq    0x00012c9d    0x20  Code  Gb  coexistence-efr32.o [23]
halPtaGetOptions        0x00012b6d     0x6  Code  Gb  coexistence-efr32.o [23]
halPtaIsEnabled         0x00012cdb     0x6  Code  Gb  coexistence-efr32.o [23]
halPtaOptions           0x2003e960     0x4  Data  Gb  coexistence-efr32.o [23]
halPtaSetRxRequest      0x00012c39    0x4a  Code  Gb  coexistence-efr32.o [23]
halPtaSetTxRequest      0x00012be7    0x4c  Code  Gb  coexistence-efr32.o [23]
halReboot               0x00002eff     0x8  Code  Gb  micro.o [14]
halReserved07Isr        0x0002a115          Code  Wk  isr-stubs.o [14]
halReserved08Isr        0x0002a115          Code  Wk  isr-stubs.o [14]
halReserved09Isr        0x0002a115          Code  Wk  isr-stubs.o [14]
halReserved10Isr        0x0002a115          Code  Wk  isr-stubs.o [14]
halReserved13Isr        0x0002a115          Code  Wk  isr-stubs.o [14]
halReserved66Isr        0x0002a115          Code  Wk  isr-stubs.o [14]
halResetInfo            0x20000000    0x9c  Data  Gb  cstartup-common.o [14]
halSetLed               0x0001c4a7    0x10  Code  Gb  led.o [14]
halSimEepromCallback    0x00018ed9    0x82  Code  Gb  ember-base-configuration.o [1]
halSimEepromCallback{1}{2}{6}::repairActive
                        0x2003ff31     0x1  Data  Lc  ember-base-configuration.o [1]
halSimEepromErasePage   0x0001e101    0x20  Code  Gb  sim-eeprom2-internal.o [70]
halSimEepromPagesRemainingToBeErased
                        0x0001e163    0x20  Code  Gb  sim-eeprom2-internal.o [70]
halSleep                0x000128fd     0x2  Code  Gb  sleep-efm32.o [14]
halSleepForMilliseconds
                        0x000129c5     0x8  Code  Gb  system-timer.o [58]
halStackCancelSymbolDelay
                        0x00018e61    0x48  Code  Gb  symbol-timer.o [71]
halStackDebugActive     0x0000e1f7     0xc  Code  Gb  debug-jtag-efr32.o [12]
halStackDebugPutBuffer  0x0000e2d7    0x12  Code  Gb  debug-jtag-efr32.o [12]
halStackIndicateActivity
                        0x0001c4dd     0xc  Code  Gb  led.o [14]
halStackInitTokens      0x0000e401    0x4c  Code  Gb  token.o [14]
halStackModifyCStackSize
                        0x00012a83    0xa0  Code  Gb  micro-internal.o [58]
halStackOrderInt16uSymbolDelayA
                        0x00018ead     0xe  Code  Gb  symbol-timer.o [71]
halStackOrderSymbolDelay
                        0x00018de5    0x76  Code  Gb  symbol-timer.o [71]
halStackProcessBootCount
                        0x00002f25     0x6  Code  Gb  micro.o [14]
halStackRadioHoldOffPowerDown
                        0x00012ce1     0x2  Code  Gb  coexistence-efr32.o [23]
halStackRadioHoldOffPowerUp
                        0x00012ce3     0x2  Code  Gb  coexistence-efr32.o [23]
halStackRadioPowerDownBoard
                        0x00002f0f    0x12  Code  Gb  micro.o [14]
halStackRadioPowerUpBoard
                        0x00002f21     0x4  Code  Gb  micro.o [14]
halStackSeedRandom      0x0001057d    0x1c  Code  Gb  random.o [1]
halStackSymbolDelayAIsr
                        0x0001ac29    0x26  Code  Gb  mac.o [71]
halStackSymbolDelayIsr  0x00018dc9    0x1c  Code  Gb  symbol-timer.o [71]
halSvCallIsr            0x0002a115          Code  Wk  isr-stubs.o [14]
halSysTickIsr           0x000129e1     0x2  Code  Wk  system-timer.o [58]
halTick                 0x0000fd85     0x2  Code  Gb  micro-common-internal.o [58]
halToggleAntenna        0x00027635     0x4  Code  Gb  antenna-stub.o [4]
halUsageFaultIsr        0x0002a099          Code  Gb  faults-v7m.o [14]
handleApplicationKeyRequest
                        0x0000cabf   0x10a  Code  Lc  trust-center-util.o [67]
handleModeSwitch        0x00014463    0x56  Code  Lc  color-control-server.o [9]
handleNonAddressConflictRouteError
                        0x0001c923    0x50  Code  Gb  route-error.o [71]
handlerQueue            0x2003e78c    0xa0  Data  Lc  scan-dispatch.o [39]
handlerQueueNextIndex   0x00009ce9    0x14  Code  Lc  scan-dispatch.o [39]
hardwareVersion         0x2003f59e     0x2  Data  Lc  ota-client.o [32]
haveTrustCenterLinkKey  0x000021a3    0x1a  Code  Lc  aps-keys.o [67]
helpCommand             0x0001673f    0x18  Code  Gb  core-cli.o [1]
hexToInt                0x00004a13    0x1a  Code  Lc  command-interpreter2.o [1]
hfSrcClkGet             0x00018fdf    0x16  Code  Lc  em_cmu.o [17]
highCallback            0x2003ed5c     0x4  Data  Lc  tempdrv.o [16]
idleRadio               0x2003f681     0x1  Data  Gb  mac.o [71]
ieee802154_coherent_config_base
                        0x000318dc   0x2ac  Data  Gb  ieee802154_efr32xg12_configurator_out.o [60]
ieee802154_coherent_config_base_phyInfo
                        0x000318d4     0x8  Data  Gb  ieee802154_efr32xg12_configurator_out.o [60]
imageBlockResponseParse
                        0x00015c11   0x18c  Code  Lc  ota-client.o [32]
imageNotifyParse        0x000156c1    0x96  Code  Lc  ota-client.o [32]
imageNotifyPayloadLengths
                        0x0002cdb0     0x4  Data  Lc  ota-client.o [32]
inReceivedStream        0x2003ff0c     0x1  Data  Lc  manufacturing-library-cli.o [27]
inTimerIRQ              0x2003ff1a     0x1  Data  Lc  rtcdriver.o [16]
indexIntoBuffers        0x00008409    0x14  Code  Lc  packet-buffer.o [71]
initDone                0x2003fef3     0x1  Data  Lc  ota-storage-simple.o [36]
initFrequency           0x00020a8d    0x1e  Code  Lc  bulb-pwm-driver-efr32.o [7]
initGpio                0x00020a85     0x8  Code  Lc  bulb-pwm-driver-efr32.o [7]
initNetworkParams       0x0002a5d1    0x2a  Code  Gb  network-cli.o [1]
initOnOffState          0x0002101d    0x10  Code  Lc  led-temp-pwm.o [25]
initRTCC                0x2003dfc8     0xc  Data  Lc  rtcdriver.o [16]
initRTCCCompareChannel  0x2003dfd4     0x8  Data  Lc  rtcdriver.o [16]
initializeEndpoint      0x0000418d    0x3e  Code  Lc  attribute-storage.o [1]
initializeNonceFromAuxFrame
                        0x0000a253    0x50  Code  Lc  crypto.o [71]
initializeNonceFromBuffer
                        0x0000a2a3    0x44  Code  Lc  crypto.o [71]
initializeParentNwkInformation
                        0x0001af49     0xe  Code  Gb  child-handling.o [71]
initializeRemoteNode    0x00007b5b    0x30  Code  Lc  binding-table.o [45]
initialized             0x2003ff19     0x1  Data  Lc  dmadrv.o [16]
insertNeighbor          0x0000d24d   0x110  Code  Lc  neighbor.o [71]
intActiveBits           0x0002e3f8    0xc8  Data  Lc  diagnostic.o [14]
internalDelayAIsr       0x00018ea9     0x4  Code  Lc  symbol-timer.o [71]
internalSleepForMilliseconds
                        0x00012971    0x16  Code  Lc  system-timer.o [58]
interpanCommand         0x0002afd9    0x4c  Code  Gb  zcl-cli.o [1]
interpanLongCommand     0x0002b02f    0x4e  Code  Gb  zcl-cli.o [1]
interpanResponseHeader  0x2003f394    0x18  Data  Lc  util.o [1]
invalidateMessageSentCallbackEntry
                        0x000037f9    0x30  Code  Lc  af-main-common.o [1]
irCalConfig             0x0003180c    0x1c  Data  Lc  phy.o [71]
irqTriggered            0x00012803    0x14  Code  Lc  sleep-efm32.o [14]
isCompatibleStackProfile
                        0x0000870d    0x26  Code  Gb  association.o [71]
isGroupPresent          0x00022031    0x2c  Code  Lc  groups-server.o [21]
isMultipleOfPageSize    0x000240e1    0x1a  Code  Lc  ota-storage-eeprom-page-erase.o [37]
isPhyTimerExpired       0x00006201    0x1e  Code  Lc  phy.o [71]
isRssiReady             0x2003e35a     0x1  Data  Lc  rail_rf_hal.o [60]
itmSendByteChannel8     0x0000e221    0x1e  Code  Lc  debug-jtag-efr32.o [12]
joinAttemptFailed       0x000088a3    0x60  Code  Lc  association.o [71]
joinData                0x2003e2d4    0x18  Data  Lc  association.o [71]
joinNetworkQuietly      0x00008b11    0x4a  Code  Lc  association.o [71]
keyCount                0x2003f5e4     0x2  Data  Lc  aps-keys-transient.o [67]
kickoffState            0x2003ff08     0x1  Data  Lc  manufacturing-library-ota.o [28]
lastAgingTime           0x2003f5f2     0x2  Data  Lc  broadcast.o [71]
lastCrcFailTimeMs       0x2003e318     0x4  Data  Lc  phy.o [71]
lastCsmaTxFinishedTimeMs
                        0x2003f4e4     0x4  Data  Lc  phy.o [71]
lastEventTimeMs         0x2003f59c     0x2  Data  Lc  aps-retry.o [71]
lastEventTimeMs         0x2003f5e8     0x4  Data  Lc  aps-keys-transient.o [67]
lastRecordedByteMaskIndex
                        0x2003df44     0x4  Data  Lc  ota-storage-eeprom-page-erase.o [37]
lastRecordedByteMaskIndexKnown
                        0x2003feef     0x1  Data  Lc  ota-storage-eeprom-page-erase.o [37]
lastRejoinStartTime     0x2003f5a0     0x4  Data  Lc  network.o [71]
lastReportTimeMin       0x2003f655     0x1  Data  Lc  zdo-channel.o [71]
lastRxStartedTimeMs     0x2003e314     0x4  Data  Lc  phy.o [71]
lastStart               0x2003ecf4     0x4  Data  Lc  rtcdriver.o [16]
lastTxFinishedTimeMs    0x2003f4e0     0x4  Data  Lc  phy.o [71]
lastTxSfdTime           0x2003f4dc     0x4  Data  Gb  phy.o [71]
lastTxStartedTimeMs     0x2003e310     0x4  Data  Lc  phy.o [71]
leaveReason             0x2003f4a8     0x1  Data  Lc  leave.o [71]
ledArray                0x0002e58c    0x10  Data  Lc  led.o [14]
ledBlink                0x00022a99    0x1c  Code  Lc  bulb-pwm-driver-blink.o [7]
ledBlinkStart           0x00022a4f     0x4  Code  Lc  bulb-pwm-driver-blink.o [7]
ledBlinkStop            0x00022a4b     0x4  Code  Lc  bulb-pwm-driver-blink.o [7]
ledOff                  0x00022a69    0x16  Code  Lc  bulb-pwm-driver-blink.o [7]
ledOn                   0x00022a53    0x16  Code  Lc  bulb-pwm-driver-blink.o [7]
ledPattern              0x2003f078    0x28  Data  Lc  bulb-pwm-cli.o [6]
leftBase                0x2003f856     0x2  Data  Gb  sim-eeprom2-internal-1to2upgrade.o [69]
leftTop                 0x2003f858     0x2  Data  Gb  sim-eeprom2-internal-1to2upgrade.o [69]
lfClkGet                0x000190fd    0x74  Code  Lc  em_cmu.o [17]
libraryEnabled          0x2003e3fd     0x1  Data  Lc  packet-validate.o [64]
libraryInfo             0x0000e3ac    0x54  Data  Lc  ember-library.o [71]
longRebootWaitTime      0x00013be3    0x1a  Code  Lc  bulb-ui.o [8]
lookupCache             0x2003e754    0x38  Data  Gb  sim-eeprom2.o [41]
lowCallback             0x2003ed60     0x4  Data  Lc  tempdrv.o [16]
lpCmpHystCalibrationLoad
                        0x000122c1    0x6a  Code  Lc  em_emu.o [17]
lpGetDevinfoVrefLowHigh
                        0x0001232b    0x70  Code  Lc  em_emu.o [17]
m2p                     0x0002d8bc    0x10  Data  Gb  dmadrv.o [16]
macBufferStatus         0x2003f671     0x1  Data  Lc  mac-arbiter.o [71]
macChanMasks            0x2003e39c     0x4  Data  Lc  radio_config_em3xxx_2.4GHz.o [71]
macCheckIncomingQueue   0x0000f089   0x1dc  Code  Lc  mac-receive.o [71]
macCommandPacketIsValid
                        0x00019fbb    0x48  Code  Lc  packet-validate.o [64]
macCommandSizes         0x0001a2c8     0xc  Data  Lc  packet-validate.o [64]
macIsInactive           0x2003f654     0x1  Data  Lc  zdo-channel.o [71]
macPg0ChanMappings      0x2003e2f8    0x10  Data  Gb  phy.o [71]
macSendShortIdCommand   0x0001b969    0x30  Code  Lc  command.o [71]
magicNumberBytes        0x0002cd34     0x4  Data  Lc  ota-storage-simple.o [36]
main                    0x0002b945    0x12  Code  Gb  simple-main.o [42]
mapMacPg0Channel        0x00005257    0x22  Code  Lc  phy.o [71]
mapMacPgChanToPhyChanBand
                        0x00005279    0xb0  Code  Lc  phy.o [71]
matchDescriptorsRequest
                        0x0002b6ed    0xb2  Code  Gb  zdo-cli.o [1]
maxDriveValue           0x00021225    0x22  Code  Lc  led-temp-pwm.o [25]
maxPwmDrive             0x2003feba     0x2  Data  Lc  led-temp-pwm.o [25]
maxTemperature          0x2003e958     0x4  Data  Lc  led-temp-pwm.o [25]
maybeCallNextHandler    0x00009cfd    0x4a  Code  Lc  scan-dispatch.o [39]
maybeSendAddressResponse
                        0x0001a4bf   0x174  Code  Lc  zigbee-device-util.o [71]
memcpy                  0x0002b925     0xc  Code  Gb  memcpy.o [54]
memset                  0x0002b931    0x14  Code  Gb  memset.o [54]
messageSentCallbacks    0x2003f12c    0x50  Data  Lc  af-main-common.o [1]
mfgCurrentPacketCounter
                        0x2003fe34     0x2  Data  Lc  manufacturing-library-cli.o [27]
mfgLibRunning           0x2003ff0d     0x1  Data  Lc  manufacturing-library-cli.o [27]
mfgSpecificId           0x2003fed4     0x2  Data  Gb  zcl-cli.o [1]
mfgStreamTestRunning    0x2003ff0f     0x1  Data  Lc  manufacturing-library-cli.o [27]
mfgToneTestRunning      0x2003ff0e     0x1  Data  Lc  manufacturing-library-cli.o [27]
mfgTotalPacketCounter   0x2003fe36     0x2  Data  Lc  manufacturing-library-cli.o [27]
mfglibEnd               0x00023925    0x80  Code  Gb  mfglib.o [62]
mfglibGetChannel        0x00023a75     0x4  Code  Gb  mfglib.o [62]
mfglibGetOptions        0x00023ae1    0x12  Code  Gb  mfglib.o [62]
mfglibGetPower          0x00023abd     0x4  Code  Gb  mfglib.o [62]
mfglibGetSynOffset      0x00023ab5     0x8  Code  Gb  mfglib.o [62]
mfglibRxHandler         0x000225ab    0x5a  Code  Lc  manufacturing-library-cli.o [27]
mfglibSendPacket        0x00023a05    0x5a  Code  Gb  mfglib.o [62]
mfglibSetChannel        0x00023a5f    0x16  Code  Gb  mfglib.o [62]
mfglibSetOptions        0x00023ac1    0x20  Code  Gb  mfglib.o [62]
mfglibSetPower          0x00023a79    0x2a  Code  Gb  mfglib.o [62]
mfglibSetSynOffset      0x00023aa3    0x12  Code  Gb  mfglib.o [62]
mfglibSetupGeneric      0x00014dfd    0x4a  Code  Lc  manufacturing-library-ota.o [28]
mfglibStart             0x000238bd    0x68  Code  Gb  mfglib.o [62]
mfglibStartStream       0x000239cf    0x16  Code  Gb  mfglib.o [62]
mfglibStartTone         0x000239a5    0x16  Code  Gb  mfglib.o [62]
mfglibStopStream        0x000239eb    0x12  Code  Gb  mfglib.o [62]
mfglibStopTone          0x000239bb    0x14  Code  Gb  mfglib.o [62]
mfglibTestContModCal    0x00023b11     0x2  Code  Gb  mfglib.o [62]
minBlockRequestPeriod   0x2003fe30     0x2  Data  Lc  ota-client.o [32]
minDriveValue           0x00021207    0x1e  Code  Lc  led-temp-pwm.o [25]
minPwmDrive             0x2003feb8     0x2  Data  Lc  led-temp-pwm.o [25]
minRejoinPeriodMillisec
                        0x2003e3b0     0x2  Data  Lc  aps-security.o [67]
minTemperature          0x2003e954     0x4  Data  Lc  led-temp-pwm.o [25]
minTicks                0x2003ed80     0x4  Data  Lc  ustimer.o [16]
mobileJoinApsFrame      0x0000c740     0x8  Data  Lc  network.o [71]
modemCfDec0Factors      0x00024e0c     0x8  Data  Lc  radio.o [60]
moveHandler             0x00014b3f    0x9e  Code  Lc  level-control.o [26]
moveToLevelHandler      0x00014a73    0xcc  Code  Lc  level-control.o [26]
mpuConfig               0x2003e0e0    0x50  Data  Lc  mpu.o [14]
mtorFlags               0x00027ff8     0x8  Data  Lc  zigbee-device.o [71]
myEndpoint              0x2003e3c3     0x1  Data  Lc  ota-client.o [32]
nChanAportNegSelMap     0x0002eeec     0x8  Data  Gb  adc-efr32.o [2]
nChanToNegSel           0x0002a4a3     0xe  Code  Gb  adc-efr32.o [2]
nameStrings             0x0002e4c0    0xcc  Data  Lc  diagnostic.o [14]
networkChangeChannelCommand
                        0x0002a705    0x26  Code  Gb  network-cli.o [1]
networkCommandBaseSizes
                        0x0001a2d4    0x10  Data  Lc  packet-validate.o [64]
networkCommandPacketIsValid
                        0x0001a051    0xa0  Code  Lc  packet-validate.o [64]
networkDecrypt          0x0000b59f   0x194  Code  Lc  network.o [71]
networkEventWrapper     0x000063cd    0x1a  Code  Lc  af-event.o [1]
networkExtendedPanIdCommand
                        0x0002a673    0x2c  Code  Gb  network-cli.o [1]
networkFormCommand      0x0002a66f     0x4  Code  Gb  network-cli.o [1]
networkFoundCallback    0x00002757    0x92  Code  Lc  network-steering.o [29]
networkIdCommand        0x0002a761    0x2e  Code  Gb  network-cli.o [1]
networkInitCommand      0x0002a72b    0x1a  Code  Gb  network-cli.o [1]
networkInitData         0x2003f49c     0x4  Data  Lc  association.o [71]
networkInitExtended     0x00003e17    0x10  Code  Lc  af-main-common.o [1]
networkJoinAttempts     0x2003ff25     0x1  Data  Lc  bulb-ui.o [8]
networkJoinCommand      0x0002a5fb    0x20  Code  Gb  network-cli.o [1]
networkLeaveCommand     0x0002a6a5    0x10  Code  Gb  network-cli.o [1]
networkPacketIsValid    0x0001a003    0x4e  Code  Lc  packet-validate.o [64]
networkPermitJoinCommand
                        0x0002a6b5    0x26  Code  Gb  network-cli.o [1]
networkRejoinCommand    0x0002a61b    0x1e  Code  Gb  network-cli.o [1]
networkRejoinDiffDeviceTypeCommand
                        0x0002a639    0x2e  Code  Gb  network-cli.o [1]
networkSetCommand       0x0002a745    0x1c  Code  Gb  network-cli.o [1]
networkSubmitUnicast    0x0000b49f    0x88  Code  Lc  network.o [71]
newEraseOperation       0x2003fef0     0x1  Data  Lc  ota-storage-eeprom-page-erase.o [37]
newNwkUpdateId          0x2003f651     0x1  Data  Lc  zdo-channel.o [71]
newPanId                0x2003e3be     0x2  Data  Lc  management.o [71]
nextApsFrameCounter     0x2003f5d0     0x4  Data  Lc  aps-encryption.o [67]
nextChannel             0x2003f45c     0x1  Data  Lc  scan.o [71]
nextEventTimer          0x2003e874     0x4  Data  Lc  ota-client.o [32]
nextHandler             0x2003feec     0x1  Data  Lc  scan-dispatch.o [39]
nextIncomingRssi        0x2003f47c     0x4  Data  Lc  scan.o [71]
nextIndex               0x2003ff3c     0x1  Data  Lc  security-address-cache.o [1]
nextOutgoingRssi        0x2003f478     0x4  Data  Lc  scan.o [71]
nextPage                0x2003f43c     0x4  Data  Gb  sim-eeprom2-internal.o [70]
nextScan                0x2003feeb     0x1  Data  Lc  scan-dispatch.o [39]
nodeThatToldUsToLeave   0x2003e3b2     0x2  Data  Lc  leave.o [71]
notePreconfiguredKeyType
                        0x000017e5    0x16  Code  Lc  aps-security.o [67]
notifyTrustCenter       0x0000cfbd    0x28  Code  Lc  leave.o [71]
nsToStimerRatio         0x2003fd80     0x4  Data  Lc  timings.o [60]
nullCallback            0x2003ed54     0x8  Data  Lc  tempdrv.o [16]
nullEui                 0x0002e5a8     0x8  Data  Lc  mfg-token.o [14]
nullFunction            0x00022a41     0x2  Code  Lc  bulb-pwm-driver-blink.o [7]
nwkSequenceNumber       0x2003ff4e     0x1  Data  Lc  application-support.o [71]
oldAddressMatchingEnabled
                        0x2003fed8     0x1  Data  Lc  mfglib.o [62]
oldAutoAckEnabled       0x2003fed9     0x1  Data  Lc  mfglib.o [62]
oldChan                 0x2003feda     0x1  Data  Lc  mfglib.o [62]
oldCheckCca             0x2003fedc     0x1  Data  Lc  mfglib.o [62]
oldPower                0x2003fedb     0x1  Data  Lc  mfglib.o [62]
oldRadioIdleMode        0x2003fed6     0x1  Data  Lc  mfglib.o [62]
oldRadioSleep           0x2003fed7     0x1  Data  Lc  mfglib.o [62]
oldTxPowerMode          0x2003fede     0x2  Data  Lc  mfglib.o [62]
onOffState              0x2003ff11     0x1  Data  Lc  led-temp-pwm.o [25]
oneScanDone             0x2003f656     0x1  Data  Lc  zdo-channel.o [71]
optionApsRetryCommand   0x0002a93f    0x34  Code  Gb  option-cli.o [1]
optionBindingTableClearCommand
                        0x0002a92b     0x4  Code  Gb  option-cli.o [1]
optionBindingTablePrintCommand
                        0x0002a867    0xbc  Code  Gb  option-cli.o [1]
optionBindingTableSetCommand
                        0x0002a981    0x64  Code  Gb  option-cli.o [1]
optionDiscoverCommand   0x0002a843    0x24  Code  Gb  option-cli.o [1]
optionEndDeviceBindCommand
                        0x0002a92f    0x10  Code  Gb  option-cli.o [1]
originalChannel         0x2003f45f     0x1  Data  Lc  scan.o [71]
originalPanId           0x2003f46c     0x2  Data  Lc  scan.o [71]
originalRadioIdleMode   0x2003f460     0x1  Data  Lc  scan.o [71]
otaCliBootload          0x00029dcd    0x2e  Code  Gb  ota-client-cli.o [32]
otaCliVerify            0x00029dfb     0x2  Code  Gb  ota-client-cli.o [32]
otaClientTick           0x00015209    0x8a  Code  Lc  ota-client.o [32]
otaPrintClientInfo      0x00029dfd    0x10  Code  Gb  ota-client-cli.o [32]
otaSendUpgradeRequest   0x00029e41     0x4  Code  Gb  ota-client-cli.o [32]
otaStartClientCommand   0x00029dc5     0x4  Code  Gb  ota-client-cli.o [32]
otaStartStopClientCommand
                        0x00029da1    0x24  Code  Gb  ota-client-cli.o [32]
otaStopClientCommand    0x00029dc9     0x4  Code  Gb  ota-client-cli.o [32]
otaStorageEepromGetImageInfoStartAddress
                        0x000246a7     0x2  Code  Gb  ota-storage-eeprom.o [37]
otaStorageEepromGetStorageEndAddress
                        0x000246a1     0x6  Code  Gb  ota-storage-eeprom.o [37]
otaStorageEepromGetStorageStartAddress
                        0x0002469d     0x4  Code  Gb  ota-storage-eeprom.o [37]
p2m                     0x0002d8cc    0x10  Data  Gb  dmadrv.o [16]
pChanAportPosSelMap     0x0002eee4     0x8  Data  Gb  adc-efr32.o [2]
pChanToPosSel           0x0002a495     0xe  Code  Gb  adc-efr32.o [2]
paCalEnabled            0x2003e34e     0x1  Data  Lc  pa.o [60]
paInit2p4               0x0002e5c8     0x8  Data  Lc  micro.o [14]
paParams                0x000172e8   0x110  Data  Lc  pa.o [60]
packetChecks            0x0001a310    0x40  Data  Lc  packet-validate.o [64]
pageEraseStatus         0x2003e3c7     0x1  Data  Gb  eeprom.o [13]
panConflictMeter        0x2003f70c     0x1  Data  Lc  management.o [71]
parentAnnounceIndex     0x2003f5b9     0x1  Data  Gb  zigbee-device-util.o [71]
parentNwkInformation    0x2003f72e     0x2  Data  Gb  child-handling.o [71]
parseDefsBuildRamCache  0x0001d32d   0x1d0  Code  Lc  sim-eeprom2-internal.o [70]
parseVpMgmt             0x0001d089    0xf4  Code  Lc  sim-eeprom2-internal.o [70]
patternBuffer8u         0x2003f0c8    0x28  Data  Lc  bulb-pwm-cli.o [6]
pendedRxWindowEnd       0x2003fda0     0x1  Data  Lc  generic_phy.o [60]
pendingAckedCount       0x2003f590     0x1  Data  Lc  aps-retry.o [71]
permitJoining           0x2003f488     0x1  Data  Lc  association.o [71]
phy2SubBandConfig       0x2003f4d4     0x4  Data  Lc  phy.o [71]
phy2SubBandParams       0x2003f4d8     0x4  Data  Lc  phy.o [71]
phyToMacQueueLength     0x2003f668     0x2  Data  Lc  mac-receive.o [71]
phyToMacQueueLengthReached
                        0x2003f66a     0x2  Data  Lc  mac-receive.o [71]
pktRxAborted            0x000175eb    0x1e  Code  Gb  rail_rf_hal.o [60]
pktRxDoneEvt            0x000175b3    0x1c  Code  Gb  rail_rf_hal.o [60]
pktRxFrmErr             0x000175cf     0xe  Code  Gb  rail_rf_hal.o [60]
pktRxOverflow           0x000175dd     0x6  Code  Gb  rail_rf_hal.o [60]
pktTxDoneEvt            0x000174b5    0x14  Code  Gb  rail_rf_hal.o [60]
pktTxErrorEvt           0x0001765d    0x38  Code  Gb  rail_rf_hal.o [60]
pollState               0x2003f673     0x1  Data  Lc  mac-arbiter.o [71]
power0dBmParams         0x000173f8    0x10  Data  Lc  pa.o [60]
powers10                0x0002d918    0x24  Data  Lc  ember-printf.o [15]
preCopyTokElementsToNext
                        0x0001d937   0x1d2  Code  Lc  sim-eeprom2-internal.o [70]
preTxOp                 0x2003f4ec     0x4  Data  Lc  phy.o [71]
preambleDetected        0x000176a5     0x6  Code  Gb  rail_rf_hal.o [60]
precntRatioFrac         0x2003fdd4     0x4  Data  Lc  protimer.o [60]
precntRatioInt          0x2003fdd0     0x4  Data  Lc  protimer.o [60]
prepareForResponse      0x00012e4b    0x6e  Code  Lc  util.o [1]
previousCharacter       0x2003ff2e     0x1  Data  Lc  command-interpreter2.o [1]
printBootloaderInfoCommand
                        0x00029e45    0x2c  Code  Gb  ota-bootload-cli.o [31]
printCommandUsage       0x00004f99    0x8a  Code  Lc  command-interpreter2.o [1]
printEvents             0x00016785    0x50  Code  Gb  core-cli.o [1]
printIncomingZclMessage
                        0x00012f97    0x8c  Code  Lc  util.o [1]
printMessage            0x00003c75    0x58  Code  Lc  af-main-common.o [1]
printMfgString          0x00016511    0x1a  Code  Gb  core-cli.o [1]
printNetworkState       0x00013e05    0x34  Code  Lc  bulb-ui.o [8]
printNetworkStatus      0x00013e39    0x2c  Code  Lc  bulb-ui.o [8]
printPacketBuffers      0x0001652b    0x1c  Code  Lc  core-cli.o [1]
printPercentage         0x00023f5f    0x6a  Code  Lc  ota-common.o [34]
printPercentage::imageSize
                        0x2003e85c     0x4  Data  Lc  ota-common.o [34]
printPercentage::oldPercentageComplete
                        0x2003e3c2     0x1  Data  Lc  ota-common.o [34]
printPercentage::percentageComplete
                        0x2003fef4     0x1  Data  Lc  ota-common.o [34]
printPercentage::startingOffset
                        0x2003e858     0x4  Data  Lc  ota-common.o [34]
printSmartEnergySecurityInfo
                        0x00016547     0x4  Code  Gb  core-cli.o [1]
printSmartEnergySecurityInfo283k1
                        0x0001654b     0x4  Code  Gb  core-cli.o [1]
printTextLine           0x00002d2f     0xc  Code  Gb  print-formatter.o [1]
printZigbeeKey          0x00002d1f     0x8  Code  Gb  print-formatter.o [1]
printedMaxPanIdsWarning
                        0x2003fefd     0x1  Data  Lc  network-steering.o [29]
processActiveEndpointResponse
                        0x00013a93    0x4e  Code  Lc  service-discovery-common.o [1]
processAddressResponse  0x00013a41    0x46  Code  Lc  service-discovery-common.o [1]
processDeviceAnnounceAndFindIdConflict
                        0x0000be89    0xc8  Code  Lc  network.o [71]
processKeyCommand       0x00001479   0x2dc  Code  Lc  aps-security.o [67]
processMatchDescriptorResponse
                        0x00013921    0x4a  Code  Lc  service-discovery-common.o [1]
processScanRequest      0x0001bead   0x11e  Code  Lc  zdo-channel.o [71]
processSimpleDescriptorResponse
                        0x00013971    0xd0  Code  Lc  service-discovery-common.o [1]
processZigbeePacket     0x0000b8f1   0x46c  Code  Lc  network.o [71]
protChChngCB            0x2003fd04     0x4  Data  Lc  rail_rf_hal.o [60]
protmrLbtEvt            0x00017761    0x82  Code  Gb  rail_rf_hal.o [60]
protmrRetry             0x000177e3     0x2  Code  Gb  rail_rf_hal.o [60]
protmrStartCca          0x000177e5     0x6  Code  Gb  rail_rf_hal.o [60]
ptaEnabled              0x2003ff12     0x1  Data  Lc  coexistence-efr32.o [23]
ptaUpdateReqIsr         0x00012b73    0x74  Code  Lc  coexistence-efr32.o [23]
ptiEnabled              0x2003e2f2     0x1  Data  Lc  phy.o [71]
ptrCache                0x2003e680    0xd4  Data  Gb  sim-eeprom2.o [41]
ptrCacheLoc             0x0001cfdf    0x1a  Code  Lc  sim-eeprom2-internal.o [70]
pumpRx                  0x00010b0d    0x76  Code  Lc  com.o [14]
pushEui64               0x0000a9e5    0x10  Code  Lc  zigbee-packet-header.o [71]
pushInt16u              0x0000a9db     0xa  Code  Lc  zigbee-packet-header.o [71]
putImageInfoInMessage   0x0001548f    0x24  Code  Lc  ota-client.o [32]
putReportableChangeInResp
                        0x00021c07    0x4a  Code  Lc  reporting.o [38]
queryNextImage          0x000159c5    0x70  Code  Lc  ota-client.o [32]
queryNextImageResponseParse
                        0x000157f5    0x9e  Code  Lc  ota-client.o [32]
racCalRequest           0x00017f19     0x6  Code  Gb  rail_rf_hal.o [60]
racStateChange          0x000176b7    0x10  Code  Gb  rail_rf_hal.o [60]
radioCheckCrc           0x2003e2f1     0x1  Data  Lc  phy.o [71]
radioCurrentPowerStatus
                        0x2003e2f7     0x1  Data  Gb  phy.o [71]
radioIdlePowerState     0x2003e2f6     0x1  Data  Lc  phy.o [71]
radioInited             0x2003f4c4     0x1  Data  Lc  phy.o [71]
radioTransmitConfig     0x2003e2b4     0x8  Data  Gb  zigbee-stack.o [71]
rail154Config           0x2003e31c    0x10  Data  Gb  phy.o [71]
railCalInitParams       0x000062e8     0x8  Data  Lc  phy.o [71]
railInit                0x000062dc     0xc  Data  Lc  phy.o [71]
rcIrCalData             0x2003fdb0    0x14  Data  Gb  ir_cal.o [60]
readAndValidateStoredImage
                        0x00023bd9   0x138  Code  Lc  ota-storage-simple.o [36]
readBulbUiData          0x0002a1b5    0x4a  Code  Lc  configuration-server-cli.o [10]
readColorConfigData     0x0002a16d    0x48  Code  Lc  configuration-server-cli.o [10]
readColorMode           0x000140d1    0x1e  Code  Lc  color-control-server.o [9]
readColorTemperature    0x000140ef    0x1a  Code  Lc  color-control-server.o [9]
readColorTemperatureMax
                        0x00014131    0x1e  Code  Lc  color-control-server.o [9]
readColorTemperatureMin
                        0x00014109    0x1a  Code  Lc  color-control-server.o [9]
readCounterTokenValue   0x0001dfab    0x34  Code  Lc  sim-eeprom2-internal.o [70]
readFilteredOnOffAndLevel
                        0x0002102d    0x34  Code  Lc  led-temp-pwm.o [25]
readIdentifyTime        0x00029bb9    0x18  Code  Lc  identify.o [24]
readLevelAttribute      0x00020fe7    0x30  Code  Lc  led-temp-pwm.o [25]
readNetworkTokens       0x00009a77    0x32  Code  Lc  association.o [71]
readNodeData            0x00009aa9     0xc  Code  Lc  association.o [71]
readOnOffAttribute      0x00020fc1    0x20  Code  Lc  led-temp-pwm.o [25]
readPatternArgument     0x0002a40d    0x34  Code  Lc  bulb-pwm-cli.o [6]
readPowerMeterData      0x0002a211     0x2  Code  Lc  configuration-server-cli.o [10]
readServerAttribute     0x00022c41    0x28  Code  Lc  scenes.o [40]
readWritePrimitive      0x00024559    0x72  Code  Lc  ota-storage-eeprom.o [37]
realPagesPerVirtual     0x2003f854     0x1  Data  Gb  sim-eeprom2-internal-1to2upgrade.o [69]
rebootEventState        0x2003ff26     0x1  Data  Lc  bulb-ui.o [8]
receivedTimeoutResponse
                        0x2003f718     0x1  Data  Gb  child-handling.o [71]
recordServerEuiAndGoToNextState
                        0x00015373    0x1c  Code  Lc  ota-client.o [32]
recordUpgradeStatus     0x00015565    0x2a  Code  Lc  ota-client.o [32]
recyclePendingAckedMessages
                        0x0000f43d    0x46  Code  Lc  aps-retry.o [71]
reenqueueSubmitHead     0x0000ffe7    0x78  Code  Lc  retry.o [71]
regBases                0x00024de4     0x8  Data  Lc  radio.o [60]
rejoinMode              0x2003e3e7     0x1  Data  Lc  aps-security.o [67]
releaseTypes            0x0002f474    0x48  Data  Lc  af-main-common.o [1]
removeConfiguration     0x000219cf    0x24  Code  Lc  reporting.o [38]
removeConfigurationAndScheduleTick
                        0x000219f3     0xc  Code  Lc  reporting.o [38]
removeEntryFromGroupTable
                        0x00021d25    0x3c  Code  Lc  groups-server.o [21]
removeFromBuffer        0x0000b25b    0x2e  Code  Lc  network.o [71]
repairCounter           0x2003f436     0x2  Data  Lc  sim-eeprom2-internal.o [70]
repairTokElementsToSpare
                        0x0001d763   0x1ae  Code  Lc  sim-eeprom2-internal.o [70]
reportEntryDoesNotExist
                        0x00021c51    0x28  Code  Lc  reporting.o [38]
requestDenied           0x2003ff13     0x1  Data  Lc  coexistence-efr32.o [23]
requestKeyBuffer        0x2003e3f2     0x1  Data  Lc  trust-center-util.o [67]
rescheduleRtc           0x00011b39    0x7a  Code  Lc  rtcdriver.o [16]
resetBindingsAndAttributes
                        0x00013ff5    0x2e  Code  Lc  bulb-ui.o [8]
resetCauseMasks         0x0002d864    0x48  Data  Lc  em_rmu.o [17]
resetCommand            0x0001675d     0x4  Code  Gb  core-cli.o [1]
resetJoinAttempts       0x00013dfd     0x8  Code  Lc  bulb-ui.o [8]
responseTimeoutRemaining
                        0x2003f719     0x1  Data  Gb  child-handling.o [71]
restartListening        0x00005359    0x3a  Code  Lc  phy.o [71]
restartServerDiscoveryAfterDelay
                        0x000152b5    0x12  Code  Lc  ota-client.o [32]
retrySendReport         0x000212dd    0x12  Code  Lc  reporting.o [38]
rf4ceNetworkCommandPacketIsValid
                        0x0001a219    0x62  Code  Lc  packet-validate.o [64]
rf4ceNetworkPacketIsValid
                        0x0001a1c7    0x52  Code  Lc  packet-validate.o [64]
rf4ceNwkApplicationCapabilitiesOffset
                        0x0001a30c     0x4  Data  Lc  packet-validate.o [64]
rf4ceNwkCommandBaseSizes
                        0x0001a300     0xc  Data  Lc  packet-validate.o [64]
rhoActive               0x2003ff4a     0x1  Data  Lc  phy.o [71]
rightBase               0x2003f85a     0x2  Data  Gb  sim-eeprom2-internal-1to2upgrade.o [69]
rightTop                0x2003f85c     0x2  Data  Gb  sim-eeprom2-internal-1to2upgrade.o [69]
routeRequestId          0x2003ff4f     0x1  Data  Lc  leaf-routing-stub.o [71]
rssiAverageDone         0x000177f7    0x4a  Code  Gb  rail_rf_hal.o [60]
rtcRunning              0x2003ff1b     0x1  Data  Lc  rtcdriver.o [16]
rtcdrvIsInitialized     0x2003ff1c     0x1  Data  Lc  rtcdriver.o [16]
rtt_buffer              0x2003ef0c    0x40  Data  Lc  debug-jtag-efr32.o [12]
rtt_buffer_index        0x2003e130     0x4  Data  Lc  debug-jtag-efr32.o [12]
runEventHandler         0x0000f64b   0x120  Code  Lc  aps-retry.o [71]
runUpgrade              0x00015ec3    0x12  Code  Lc  ota-client.o [32]
rxBuffer                0x2003f4f4    0x94  Data  Lc  phy.o [71]
rxCallback              0x00010cf5    0x88  Code  Lc  com.o [14]
rxCb                    0x2003e968     0x4  Data  Lc  coexistence-efr32.o [23]
rxConfigEvents          0x2003e360     0x4  Data  Lc  rail_rf_hal.o [60]
rxFifoAlmostFull        0x00018223    0x10  Code  Lc  rail_rf_hal.o [60]
rxFifoModeHelper        0x000175ad     0x6  Code  Lc  rail_rf_hal.o [60]
rxFifoUnderflow         0x00018233     0x6  Code  Lc  rail_rf_hal.o [60]
rxNextBuffer            0x00010d7d    0x3c  Code  Lc  com.o [14]
rxPacketModeHelper      0x000174c9    0xd8  Code  Lc  rail_rf_hal.o [60]
rxReq                   0x2003ff15     0x1  Data  Lc  coexistence-efr32.o [23]
rxTimeout               0x00017609    0x26  Code  Gb  rail_rf_hal.o [60]
rxTxCallbackState       0x2003fd9c     0x1  Data  Lc  generic_phy.o [60]
saveFrameDetDisable     0x2003e359     0x1  Data  Lc  rail_rf_hal.o [60]
saveRssiPeriod          0x2003e368     0x4  Data  Lc  rail_rf_hal.o [60]
saveRxStatistics        0x00014edb    0x4c  Code  Lc  manufacturing-library-ota.o [28]
saveStateLeaveNetwork   0x00014d9d    0x3a  Code  Lc  manufacturing-library-ota.o [28]
savedAssertInfo         0x2003eee8     0x8  Data  Lc  cstartup-common.o [14]
savedChannel            0x2003ff04     0x1  Data  Lc  manufacturing-library-ota.o [28]
savedEndpoint           0x2003ff06     0x1  Data  Lc  manufacturing-library-ota.o [28]
savedLinkQuality        0x2003ff0b     0x1  Data  Lc  manufacturing-library-cli.o [27]
savedOnOff              0x2003ff07     0x1  Data  Lc  manufacturing-library-ota.o [28]
savedPkt                0x2003e8bc    0x80  Data  Lc  manufacturing-library-cli.o [27]
savedPktLength          0x2003ff09     0x1  Data  Lc  manufacturing-library-cli.o [27]
savedPower              0x2003ff05     0x1  Data  Lc  manufacturing-library-ota.o [28]
savedResetCause         0x2003fec4     0x2  Data  Lc  cstartup-common.o [14]
savedRssi               0x2003ff0a     0x1  Data  Lc  manufacturing-library-cli.o [27]
savedTime               0x2003fe32     0x2  Data  Lc  manufacturing-library-ota.o [28]
scanChannelMask         0x2003f474     0x4  Data  Lc  scan.o [71]
scanCompleteCallback    0x00002731    0x26  Code  Lc  network-steering.o [29]
scanDuration            0x2003f45d     0x1  Data  Lc  scan.o [71]
scanFrameCounter        0x2003f470     0x4  Data  Lc  scan.o [71]
scanRequestHeader       0x2003e3f4     0x1  Data  Lc  zdo-channel.o [71]
scanResults             0x2003e3f5     0x1  Data  Lc  zdo-channel.o [71]
scanResultsHandler      0x000027e9    0x1a  Code  Lc  network-steering.o [29]
scanTransmitRetries     0x2003f45e     0x1  Data  Lc  scan.o [71]
scansRemaining          0x2003f653     0x1  Data  Lc  zdo-channel.o [71]
schedule                0x0001484d    0x12  Code  Lc  level-control.o [26]
scheduleIdentifyTick    0x00029be9    0x5a  Code  Lc  identify.o [24]
scheduleMoveEvent       0x00014709    0x40  Code  Lc  end-device-move.o [18]
scheduleSearchForJoinableNetwork
                        0x00013dc7     0x2  Code  Lc  bulb-ui.o [8]
scheduleTick            0x0002193f    0x8a  Code  Lc  reporting.o [38]
scheduledRx             0x2003fd9d     0x1  Data  Lc  generic_phy.o [60]
scheduledRxHardEnd      0x2003fd9e     0x1  Data  Lc  generic_phy.o [60]
scheduledRxLoop         0x2003fd9f     0x1  Data  Lc  generic_phy.o [60]
securityAddressCacheInit
                        0x000049c1    0x10  Code  Gb  security-address-cache.o [1]
securityJoinNotify      0x0001c979     0xe  Code  Lc  af-trust-center.o [1]
seed0                   0x2003e3ac     0x2  Data  Gb  random.o [1]
seed1                   0x2003e3ae     0x2  Data  Gb  random.o [1]
send                    0x0000386f   0x178  Code  Lc  af-main-common.o [1]
sendAckedUnicast        0x0000f76b    0xfc  Code  Lc  aps-retry.o [71]
sendApplicationKeys     0x0000cbc9    0xd6  Code  Lc  trust-center-util.o [67]
sendBuff                0x2003fe38    0x80  Data  Lc  manufacturing-library-cli.o [27]
sendFromSource          0x2003e3bc     0x2  Data  Lc  application-support.o [71]
sendLeaveCommand        0x0000d023    0x8a  Code  Lc  leave.o [71]
sendMessage             0x00015893   0x124  Code  Lc  ota-client.o [32]
sendNetworkKey          0x0000c9cf    0x12  Code  Lc  trust-center-util.o [67]
sendSpecialJoinRequest  0x00008ce3    0xd4  Code  Lc  association.o [71]
sendUpdateDevice        0x00001179    0x4c  Code  Lc  aps-security.o [67]
sendZigDevRequestBuffer
                        0x00007901    0x46  Code  Lc  zigbee-device-library.o [1]
seqMisc                 0x21001f6c    0x10  Data  Gb  radio.o [60]
seqNo                   0x2003f4ce     0x1  Data  Lc  phy.o [71]
seqPaConfig             0x21001fec     0x4  Data  Gb  radio.o [60]
seqStack                0x21001fc4    0x28  Data  Gb  radio.o [60]
seqTimestamps           0x21001f7c    0x18  Data  Gb  radio.o [60]
seqTiming               0x21001f94    0x30  Data  Gb  radio.o [60]
seqVirtualReg           0x21001ff0    0x10  Data  Gb  radio.o [60]
sequenceNumber          0x2003ff24     0x1  Data  Lc  debug-jtag-efr32.o [12]
sequencerInterrupt      0x000176c7    0x82  Code  Gb  rail_rf_hal.o [60]
serialPort              0x2003e3ca     0x1  Data  Gb  af-main-soc.o [1]
serverEndpoint          0x2003e3c4     0x1  Data  Lc  ota-client.o [32]
serverMask              0x2003fee4     0x2  Data  Gb  zigbee-device.o [71]
serverNodeId            0x2003e3a0     0x2  Data  Lc  ota-client.o [32]
serviceDiscoveryComplete
                        0x000138a5    0x50  Code  Lc  service-discovery-common.o [1]
setComHandleQueues      0x00010b8b    0x2a  Code  Lc  com.o [14]
setCurCcaThreshold      0x000051a7    0x1e  Code  Lc  phy.o [71]
setEblStartOffset       0x000244fb     0x4  Code  Lc  ota-storage-eeprom.o [37]
setHfLeConfig           0x00018faf    0x2e  Code  Lc  em_cmu.o [17]
setHfxoTuningMode       0x000190e5    0x14  Code  Lc  em_cmu.o [17]
setNonvolatileBinding   0x0000797f    0x2e  Code  Lc  binding-table.o [45]
setOnOffValue           0x000149e9    0x1e  Code  Lc  level-control.o [26]
setOrOverrideTrustCenterEui64
                        0x00002221    0x22  Code  Lc  aps-keys.o [67]
setPageRequest          0x00029e0d    0x16  Code  Gb  ota-client-cli.o [32]
setPausePercentage      0x00029e23     0xe  Code  Gb  ota-client-cli.o [32]
setPowerUpOnOffState    0x00014043    0x8e  Code  Lc  bulb-ui.o [8]
setRadioParameters      0x0000992d    0x52  Code  Lc  association.o [71]
setRssiPeriod           0x00017749    0x18  Code  Lc  rail_rf_hal.o [60]
setTimer                0x00015177    0x62  Code  Lc  ota-client.o [32]
setTxOptions            0x000181d1    0x2e  Code  Lc  rail_rf_hal.o [60]
setUartBufferQueues     0x00010db9    0x1c  Code  Lc  com.o [14]
setUpDefaultReportingTableEntries
                        0x00014fc9    0x3a  Code  Lc  on-off.o [30]
setUpDefaultReportingTableEntries
                        0x00014881    0x46  Code  Lc  level-control.o [26]
setUpDefaultReportingTableEntries
                        0x00014235    0x4a  Code  Lc  color-control-server.o [9]
setupDiscoveryData      0x0001387d    0x28  Code  Lc  service-discovery-common.o [1]
setupPnForTest          0x000273a1    0x3a  Code  Lc  rf_test.o [60]
setupSecurity           0x0000294d    0x96  Code  Lc  network-steering.o [29]
sfdRecvNotificationEnabled
                        0x2003f4cb     0x1  Data  Lc  phy.o [71]
shift                   0x00010599    0x10  Code  Lc  random.o [1]
shortRebootWaitTime     0x00013bcb    0x18  Code  Lc  bulb-ui.o [8]
simEe1Found             0x2003f434     0x1  Data  Gb  sim-eeprom2-internal.o [70]
simEe1ReadCounterToken  0x0002835d    0xac  Code  Gb  sim-eeprom2-internal-1to2upgrade.o [69]
simEe1SizeCache         0x2003f754   0x100  Data  Gb  sim-eeprom2-internal-1to2upgrade.o [69]
simEe1TokDefs           0x2003f85e     0x2  Data  Gb  sim-eeprom2-internal-1to2upgrade.o [69]
simEe1offset            0x2003f860     0x4  Data  Gb  sim-eeprom2-internal-1to2upgrade.o [69]
simEeErasePage          0x0001cf21    0x16  Code  Lc  sim-eeprom2-internal.o [70]
simEeReadTokenData      0x0001cf8d    0x30  Code  Gb  sim-eeprom2-internal.o [70]
simEeSetDataActiveSemaphore
                        0x2003ff21     0x1  Data  Gb  token.o [14]
simEeTestDisableFindSimEe1
                        0x2003f855     0x1  Data  Gb  sim-eeprom2-internal-1to2upgrade.o [69]
simEeWriteTokenData     0x0001cf37    0x56  Code  Lc  sim-eeprom2-internal.o [70]
simulatedEepromStorage  0x000f7000  0x9000  Data  Gb  sim-eeprom2.o [41]
singletonAttributeData  0x2003f1ec    0x4c  Data  Gb  attribute-storage.o [1]
singletonAttributeLocation
                        0x0000422f    0x22  Code  Lc  attribute-storage.o [1]
sizeCache               0x0002cbdc    0x38  Data  Gb  sim-eeprom2.o [41]
sleepTimerInterruptOccurred
                        0x2003f480     0x1  Data  Lc  system-timer.o [58]
sleepyBroadcastInfo     0x2003f748     0x1  Data  Lc  jit.o [71]
sleepyEndDevice         0x2003e3f9     0x1  Data  Lc  child-handling.o [71]
slotManagerContinueImageValidation
                        0x00023f01     0x4  Code  Gb  ota-client-policy.o [33]
sniffBaudHz             0x2003f58c     0x4  Data  Lc  pti.o [60]
sniffMode               0x2003f588     0x4  Data  Lc  pti.o [60]
soFullRepairIsNeeded    0x2003f435     0x1  Data  Lc  sim-eeprom2-internal.o [70]
socBootloaderSupportWriteHandler
                        0x00024637    0x20  Code  Lc  ota-storage-eeprom.o [37]
softwareTimerExpired    0x000177eb     0xc  Code  Gb  rail_rf_hal.o [60]
sparePage               0x2003f440     0x4  Data  Gb  sim-eeprom2-internal.o [70]
stackEvents             0x00001f5c    0x90  Data  Gb  zigbee-stack.o [71]
stackTokenInfo          0x0000de2c    0x3c  Data  Lc  token-cache.o [71]
startChannelScan        0x0001b881    0x64  Code  Lc  scan.o [71]
startDownload           0x00015763    0x88  Code  Lc  ota-client.o [32]
startNetworkOperation   0x00008865    0x3e  Code  Lc  association.o [71]
startPtaRxRetryRequest  0x00005d95    0x32  Code  Lc  phy.o [71]
startSearchForJoinableNetwork
                        0x00013dc9    0x34  Code  Lc  bulb-ui.o [8]
startServerDiscovery    0x000153e9    0x58  Code  Lc  ota-client.o [32]
startTimerNestingLevel  0x2003ecf8     0x4  Data  Lc  rtcdriver.o [16]
startTransmission       0x000185d5     0xc  Code  Lc  mac-phy.o [71]
state                   0x2003fdc7     0x1  Data  Lc  update-tc-link-key.o [43]
state                   0x2003dfb4     0x4  Data  Gb  led-temp-pwm.o [25]
stateMachineRun         0x000028f1    0x5c  Code  Lc  network-steering.o [29]
stateTable              0x2003e93c    0x14  Data  Lc  level-control.o [26]
stateTable              0x2003e95c     0x4  Data  Lc  identify.o [24]
states                  0x2003eb08     0x4  Data  Lc  end-device-move.o [18]
states                  0x2003eb0c    0x18  Data  Lc  end-device-support.o [18]
states                  0x2003f364     0xc  Data  Lc  service-discovery-common.o [1]
staticCmd               0x00031454    0x20  Data  Lc  util.o [1]
status                  0x00028de5    0x16  Code  Lc  call-command-handler.o [1]
statusPattern           0x2003f0a0    0x28  Data  Lc  bulb-pwm-cli.o [6]
stepHandler             0x00014c09    0xe6  Code  Lc  level-control.o [26]
stopAllColorTransitions
                        0x00014453    0x10  Code  Lc  color-control-server.o [9]
stopHandler             0x00014d0b    0x2e  Code  Lc  level-control.o [26]
storageHasFullImage     0x2003fef2     0x1  Data  Lc  ota-storage-simple.o [36]
storageSlot             0x2003e96c     0x4  Data  Lc  bootloader-interface-app.o [19]
storeData               0x00015c03     0xe  Code  Lc  ota-client.o [32]
storedKeysList          0x2003e3f3     0x1  Data  Lc  aps-keys-transient.o [67]
storedNetworks          0x2003e3c6     0x1  Data  Lc  network-steering-soc.o [29]
storedSleepControl      0x2003fef1     0x1  Data  Lc  ota-storage-eeprom-page-erase.o [37]
stringToUnsignedInt     0x00004e61    0x7a  Code  Lc  command-interpreter2.o [1]
strlen                  0x0001e4a9          Code  Gb  strlen.o [66]
subBandConfigs          0x00031898    0x18  Data  Lc  radio_config_em3xxx_2.4GHz.o [71]
subBandParams           0x00031884    0x14  Data  Lc  radio_config_em3xxx_2.4GHz.o [71]
submitCount             0x2003f739     0x1  Data  Lc  retry.o [71]
subtractHue             0x000144c7    0x10  Code  Lc  color-control-server.o [9]
swoOutput               0x0000e23f    0x98  Code  Lc  debug-jtag-efr32.o [12]
symbolDelayCallbacks    0x2003fd18     0x8  Data  Lc  symbol-timer.o [71]
syncReg                 0x00019171    0x16  Code  Lc  em_cmu.o [17]
systemTimerId           0x2003f484     0x4  Data  Lc  system-timer.o [58]
tail                    0x2003feed     0x1  Data  Lc  scan-dispatch.o [39]
tempdrvHighCallbacks    0x2003ed04    0x28  Data  Lc  tempdrv.o [16]
tempdrvLowCallbacks     0x2003ed2c    0x28  Data  Lc  tempdrv.o [16]
terminateScanRequest    0x0001be75    0x28  Code  Lc  zdo-channel.o [71]
testModeRegisterState   0x2003fde0    0x50  Data  Lc  rf_test.o [60]
testPacket              0x2003df74    0x40  Data  Lc  manufacturing-library-cli.o [27]
ticksPerPeriod          0x2003fec6     0x2  Data  Lc  bulb-pwm-driver-efr32.o [7]
timeElapsed             0x2003ff1f     0x1  Data  Lc  ustimer.o [16]
timeoutOptions          0x0001b1e0    0x3c  Data  Gb  child-handling.o [71]
timer                   0x2003e5c8    0xa0  Data  Lc  rtcdriver.o [16]
timerExpired            0x2003e358     0x1  Data  Lc  rail_rf_hal.o [60]
timingDetected          0x0001769d     0x8  Code  Gb  rail_rf_hal.o [60]
timingLost              0x00017695     0x8  Code  Gb  rail_rf_hal.o [60]
timings                 0x2003fd84    0x14  Data  Lc  timings.o [60]
tokenArraySize          0x00030ec4    0x38  Data  Gb  token-def.o [1]
tokenCreators           0x00030de4    0x70  Data  Gb  token-def.o [1]
tokenDefaults           0x000311e0    0xe0  Data  Gb  token-def.o [1]
tokenFlagsToSizeArray   0x00009edc     0x4  Data  Lc  install-code-tokens.o [59]
tokenIsCnt              0x00030e54    0x38  Data  Gb  token-def.o [1]
tokenLength             0x00004a2d    0x1a  Code  Lc  command-interpreter2.o [1]
tokenPointer            0x00004a47    0x10  Code  Lc  command-interpreter2.o [1]
tokenSize               0x00030e8c    0x38  Data  Gb  token-def.o [1]
tokensActive            0x2003ff20     0x1  Data  Gb  token.o [14]
totalImageSize          0x2003e860     0x4  Data  Lc  ota-client.o [32]
totalInitialChildren    0x2003f5ba     0x1  Data  Gb  zigbee-device-util.o [71]
totalTokenStorage       0x0002cbd8     0x4  Data  Gb  sim-eeprom2.o [41]
transientKeyFinish      0x0000d981    0x28  Code  Lc  aps-keys-transient.o [67]
transmitQueue           0x2003f674     0x8  Data  Lc  mac-arbiter.o [71]
transportKeyFrameSizes  0x0001a2f8     0x8  Data  Lc  packet-validate.o [64]
tryNextMethod           0x00002803    0x32  Code  Lc  network-steering.o [29]
tryToJoinNetwork        0x0000263d    0x8e  Code  Gb  network-steering.o [29]
turnLedOff              0x00022a47     0x4  Code  Lc  bulb-pwm-driver-blink.o [7]
turnLedOn               0x00022a43     0x4  Code  Lc  bulb-pwm-driver-blink.o [7]
turnStatusLedOff        0x00022a3d     0x4  Code  Lc  bulb-pwm-driver-blink.o [7]
turnStatusLedOn         0x00022a39     0x4  Code  Lc  bulb-pwm-driver-blink.o [7]
txBuffer                0x00010be9    0x3a  Code  Lc  com.o [14]
txCallback              0x00010e49    0x1e  Code  Lc  com.o [14]
txCatchUp               0x00010dd5    0x72  Code  Lc  com.o [14]
txCb                    0x2003e964     0x4  Data  Lc  coexistence-efr32.o [23]
txCcaTries              0x2003f4cf     0x1  Data  Lc  phy.o [71]
txConfigEvents          0x2003e364     0x4  Data  Lc  rail_rf_hal.o [60]
txCsmaTries             0x00005545    0xc6  Code  Lc  phy.o [71]
txFifoAlmostEmpty       0x00018209     0xe  Code  Lc  rail_rf_hal.o [60]
txFifoOverflow          0x0001821d     0x6  Code  Lc  rail_rf_hal.o [60]
txOptions               0x2003f4c0     0x4  Data  Lc  phy.o [71]
txParams                0x2003f4b4     0xc  Data  Lc  phy.o [71]
txReq                   0x2003ff14     0x1  Data  Lc  coexistence-efr32.o [23]
txState                 0x2003f4cd     0x1  Data  Lc  phy.o [71]
typeSensitiveMemCopy    0x00004251    0x78  Code  Lc  attribute-storage.o [1]
uartdrvHandle           0x2003ed6c    0x10  Data  Lc  uartdrv.o [16]
uartdrvHandleIsInitialized
                        0x2003ff1e     0x1  Data  Lc  uartdrv.o [16]
uarthandledata          0x2003eeb0    0x34  Data  Lc  com.o [14]
unbindRequest           0x0002b58d    0x7e  Code  Lc  zdo-cli.o [1]
unicastHead             0x2003fd30     0x1  Data  Lc  unicast-table.o [71]
uninitializedIsr        0x0002a0a1          Code  Gb  faults-v7m.o [14]
unsentMessageCount      0x2003f672     0x1  Data  Lc  mac-arbiter.o [71]
unsolicitedChannelReport
                        0x2003f652     0x1  Data  Lc  zdo-channel.o [71]
updateBuffer            0x00010bb5    0x34  Code  Lc  com.o [14]
updateCurrentImageAttributes
                        0x000150cd    0x38  Code  Lc  ota-client.o [32]
updateCurrentOffset     0x000152f3    0x12  Code  Lc  ota-client.o [32]
updateDownloadFileVersion
                        0x0001531d    0x18  Code  Lc  ota-client.o [32]
updateInterrupts        0x00011d0b    0xbe  Code  Lc  tempdrv.o [16]
updateMinBlockRequestPeriodAttribute
                        0x00015111    0x1e  Code  Lc  ota-client.o [32]
updateParentToken       0x00009ba3    0x6c  Code  Lc  association.o [71]
updateRxEvents          0x0000592d    0x2c  Code  Lc  phy.o [71]
updateRxEvents::currentConfig
                        0x2003f4f0     0x4  Data  Lc  phy.o [71]
update_position         0x00020eed    0x98  Code  Gb  led-temp-pwm.o [25]
upgradeEndResponseParse
                        0x00015db9    0xe2  Code  Lc  ota-client.o [32]
usRatioFrac             0x2003fdcc     0x4  Data  Lc  protimer.o [60]
usRatioInt              0x2003fdc8     0x4  Data  Lc  protimer.o [60]
usePageRequest          0x2003fef8     0x1  Data  Lc  ota-client.o [32]
userCurrentLimitsSet    0x00012297     0xe  Code  Lc  em_emu.o [17]
userTransmitStarted     0x0001762f    0x2e  Code  Gb  rail_rf_hal.o [60]
vFillBuffer             0x0001e4e1   0x14c  Code  Lc  client-api.o [1]
vScaleDownEM23Setup     0x00011ff1    0x54  Code  Lc  em_emu.o [17]
vScaleEM01Cmd           0x00011f0d     0xc  Code  Lc  em_emu.o [17]
vScaleEM01Config        0x2003eb2c     0x4  Data  Lc  em_emu.o [17]
vcoGainPte              0x2003e388     0x1  Data  Gb  synth.o [60]
verifyMainBootloaderVersion
                        0x00028b95    0x48  Code  Lc  bootloader-interface-app.o [19]
vpaStruct               0x2003e2bc     0x8  Data  Gb  sim-eeprom2-internal.o [70]
vpbStruct               0x2003e2c4     0x8  Data  Gb  sim-eeprom2-internal.o [70]
vpcStruct               0x2003e2cc     0x8  Data  Gb  sim-eeprom2-internal.o [70]
waitingForResponse      0x2003fef7     0x1  Data  Lc  ota-client.o [32]
wakeInfo                0x2003eef4     0x4  Data  Lc  sleep-efm32.o [14]
walkDelayQueue          0x0000fdc9    0xce  Code  Lc  retry.o [71]
wallClockOverflowCnt    0x2003ecfc     0x4  Data  Lc  rtcdriver.o [16]
wallClockTimeBase       0x2003ed00     0x4  Data  Lc  rtcdriver.o [16]
wrapCntOverflows        0x2003ff5c     0x1  Data  Gb  protimer.o [60]
write16                 0x00019bb9    0x4c  Code  Gb  flash.o [58]
writeColorMode          0x00014167    0x30  Code  Lc  color-control-server.o [9]
writeColorTemperature   0x0001421d    0x18  Code  Lc  color-control-server.o [9]
writeColorX             0x000141dd    0x18  Code  Lc  color-control-server.o [9]
writeColorY             0x000141fd    0x18  Code  Lc  color-control-server.o [9]
writeHue                0x000141a1    0x1a  Code  Lc  color-control-server.o [9]
writeIdentifyTime       0x00029bd1    0x18  Code  Lc  identify.o [24]
writeMessage            0x00008507    0xae  Code  Lc  packet-buffer.o [71]
writeNewTokenData       0x0001dc91    0x94  Code  Lc  sim-eeprom2-internal.o [70]
writeRemainingTime      0x000149e7     0x2  Code  Lc  level-control.o [26]
writeRemainingTime      0x0001414f    0x18  Code  Lc  color-control-server.o [9]
writeSaturation         0x000141bb    0x1a  Code  Lc  color-control-server.o [9]
writeServerAttribute    0x00022c69     0xe  Code  Lc  scenes.o [40]
writeStoredTokDefsToNext
                        0x0001d6f5    0x66  Code  Lc  sim-eeprom2-internal.o [70]
writeVpMgmtToNext       0x0001db25   0x13e  Code  Lc  sim-eeprom2-internal.o [70]
xferCfg                 0x0002d8ac    0x10  Data  Gb  dmadrv.o [16]
zclBufferAddByte        0x0002ab6d    0x1c  Code  Gb  zcl-cli.o [1]
zclBufferAddByteFromArgument
                        0x0002abab     0x8  Code  Gb  zcl-cli.o [1]
zclBufferAddLengthAndStringFromArgument
                        0x0002abc9    0x4a  Code  Gb  zcl-cli.o [1]
zclBufferAddWord        0x0002ab89    0x12  Code  Gb  zcl-cli.o [1]
zclBufferAddWordFromArgument
                        0x0002abbb     0x6  Code  Gb  zcl-cli.o [1]
zclBufferSetup          0x0002ab09    0x5c  Code  Gb  zcl-cli.o [1]
zclClusterNames         0x000313f4    0x60  Data  Gb  util.o [1]
zclCmdIsBuilt           0x2003ff41     0x1  Data  Gb  zcl-cli.o [1]
zclGlobalCommandDiscoveryCommand
                        0x0002adf3    0x2a  Code  Gb  zcl-cli.o [1]
zclGlobalDirection      0x2003ff43     0x1  Data  Lc  zcl-cli.o [1]
zclGlobalDirectionCommand
                        0x0002ac2d    0x14  Code  Gb  zcl-cli.o [1]
zclGlobalDiscoverCommand
                        0x0002ac99     0x4  Code  Gb  zcl-cli.o [1]
zclGlobalExpectReportFromMeCommand
                        0x0002adcb    0x1c  Code  Gb  zcl-cli.o [1]
zclGlobalReadCommand    0x0002ac49     0x6  Code  Gb  zcl-cli.o [1]
zclGlobalReportCommand  0x0002aca7    0xa0  Code  Gb  zcl-cli.o [1]
zclGlobalReportReadCommand
                        0x0002ad47    0x20  Code  Gb  zcl-cli.o [1]
zclGlobalSendMeAReportCommand
                        0x0002ad67    0x4a  Code  Gb  zcl-cli.o [1]
zclGlobalSetup          0x0002ac13    0x1a  Code  Gb  zcl-cli.o [1]
zclGlobalWriteCommand   0x0002ac4f    0x4a  Code  Gb  zcl-cli.o [1]
zclIdentifyOnOffCommand
                        0x0002ae35    0x42  Code  Gb  zcl-cli.o [1]
zclTestResponseOffCommand
                        0x0002ae2f     0x6  Code  Gb  zcl-cli.o [1]
zclTestResponseOnCommand
                        0x0002ae29     0x6  Code  Gb  zcl-cli.o [1]
zdoActiveEpCommand      0x0002b4cd    0x1a  Code  Gb  zdo-cli.o [1]
zdoAddClusterCommand    0x0002b3bb    0x32  Code  Gb  zdo-cli.o [1]
zdoBindCommand          0x0002b34b    0x70  Code  Gb  zdo-cli.o [1]
zdoClearClusterCommand  0x0002b3f3    0x18  Code  Gb  zdo-cli.o [1]
zdoIeeeAddressRequestCommand
                        0x0002b289    0x14  Code  Gb  zdo-cli.o [1]
zdoLeaveRequestCommand  0x0002b527    0x44  Code  Gb  zdo-cli.o [1]
zdoMatchCommand         0x0002b2e1    0x40  Code  Gb  zdo-cli.o [1]
zdoMgmtBindCommand      0x0002b507    0x20  Code  Gb  zdo-cli.o [1]
zdoMgmtLqiCommand       0x0002b4e7    0x20  Code  Gb  zdo-cli.o [1]
zdoNetworkUpdateChannelCommand
                        0x0002b415    0x34  Code  Gb  zdo-cli.o [1]
zdoNetworkUpdateScanCommand
                        0x0002b449    0x40  Code  Gb  zdo-cli.o [1]
zdoNetworkUpdateSetCommand
                        0x0002b49d    0x22  Code  Gb  zdo-cli.o [1]
zdoNodeCommand          0x0002b2bf    0x1c  Code  Gb  zdo-cli.o [1]
zdoNwkAddressRequestCommand
                        0x0002b271    0x18  Code  Gb  zdo-cli.o [1]
zdoPowerDescriptorRequestCommand
                        0x0002b56b    0x1c  Code  Gb  zdo-cli.o [1]
zdoRouteRequestCommand  0x0002b64f    0x22  Code  Gb  zdo-cli.o [1]
zdoSimpleCommand        0x0002b29d    0x22  Code  Gb  zdo-cli.o [1]
zdoUnbindGroupCommand   0x0002b60b    0x18  Code  Gb  zdo-cli.o [1]
zdoUnbindUnicastCommand
                        0x0002b623    0x2c  Code  Gb  zdo-cli.o [1]
zeroLenByte             0x2003fece     0x2  Data  Lc  message.o [1]
zigDevApsStruct         0x2003f5c4     0x4  Data  Lc  zigbee-device-util.o [71]
zigDevRequestRadius     0x2003e3e6     0x1  Data  Gb  zigbee-device-common.o [1]
zigDevRequestSequence   0x2003ff46     0x1  Data  Lc  zigbee-device-common.o [1]
zigDevRequestSequence   0x2003f5b8     0x1  Data  Lc  zigbee-device-util.o [71]


[1] = C:\SiliconLabs\SimplicityStudio\v4\developer\sdks\gecko_sdk_suite\v1.1\app\builder\Z3ColorTempLightSoc_3\IAR ARM - Default
[2] = C:\SiliconLabs\SimplicityStudio\v4\developer\sdks\gecko_sdk_suite\v1.1\app\builder\Z3ColorTempLightSoc_3\IAR ARM - Default\adc\EFR32
[3] = C:\SiliconLabs\SimplicityStudio\v4\developer\sdks\gecko_sdk_suite\v1.1\app\builder\Z3ColorTempLightSoc_3\IAR ARM - Default\address-table
[4] = C:\SiliconLabs\SimplicityStudio\v4\developer\sdks\gecko_sdk_suite\v1.1\app\builder\Z3ColorTempLightSoc_3\IAR ARM - Default\antenna-stub
[5] = C:\SiliconLabs\SimplicityStudio\v4\developer\sdks\gecko_sdk_suite\v1.1\app\builder\Z3ColorTempLightSoc_3\IAR ARM - Default\basic
[6] = C:\SiliconLabs\SimplicityStudio\v4\developer\sdks\gecko_sdk_suite\v1.1\app\builder\Z3ColorTempLightSoc_3\IAR ARM - Default\bulb-pwm-cli
[7] = C:\SiliconLabs\SimplicityStudio\v4\developer\sdks\gecko_sdk_suite\v1.1\app\builder\Z3ColorTempLightSoc_3\IAR ARM - Default\bulb-pwm-driver\EFR32
[8] = C:\SiliconLabs\SimplicityStudio\v4\developer\sdks\gecko_sdk_suite\v1.1\app\builder\Z3ColorTempLightSoc_3\IAR ARM - Default\bulb-ui
[9] = C:\SiliconLabs\SimplicityStudio\v4\developer\sdks\gecko_sdk_suite\v1.1\app\builder\Z3ColorTempLightSoc_3\IAR ARM - Default\color-control-server
[10] = C:\SiliconLabs\SimplicityStudio\v4\developer\sdks\gecko_sdk_suite\v1.1\app\builder\Z3ColorTempLightSoc_3\IAR ARM - Default\configuration-server
[11] = C:\SiliconLabs\SimplicityStudio\v4\developer\sdks\gecko_sdk_suite\v1.1\app\builder\Z3ColorTempLightSoc_3\IAR ARM - Default\debug-basic-library\EFR32
[12] = C:\SiliconLabs\SimplicityStudio\v4\developer\sdks\gecko_sdk_suite\v1.1\app\builder\Z3ColorTempLightSoc_3\IAR ARM - Default\debug-jtag\EFR32
[13] = C:\SiliconLabs\SimplicityStudio\v4\developer\sdks\gecko_sdk_suite\v1.1\app\builder\Z3ColorTempLightSoc_3\IAR ARM - Default\eeprom
[14] = C:\SiliconLabs\SimplicityStudio\v4\developer\sdks\gecko_sdk_suite\v1.1\app\builder\Z3ColorTempLightSoc_3\IAR ARM - Default\efr32
[15] = C:\SiliconLabs\SimplicityStudio\v4\developer\sdks\gecko_sdk_suite\v1.1\app\builder\Z3ColorTempLightSoc_3\IAR ARM - Default\ember-minimal-printf
[16] = C:\SiliconLabs\SimplicityStudio\v4\developer\sdks\gecko_sdk_suite\v1.1\app\builder\Z3ColorTempLightSoc_3\IAR ARM - Default\emdrv
[17] = C:\SiliconLabs\SimplicityStudio\v4\developer\sdks\gecko_sdk_suite\v1.1\app\builder\Z3ColorTempLightSoc_3\IAR ARM - Default\emlib
[18] = C:\SiliconLabs\SimplicityStudio\v4\developer\sdks\gecko_sdk_suite\v1.1\app\builder\Z3ColorTempLightSoc_3\IAR ARM - Default\end-device-support
[19] = C:\SiliconLabs\SimplicityStudio\v4\developer\sdks\gecko_sdk_suite\v1.1\app\builder\Z3ColorTempLightSoc_3\IAR ARM - Default\external-generated-files
[20] = C:\SiliconLabs\SimplicityStudio\v4\developer\sdks\gecko_sdk_suite\v1.1\app\builder\Z3ColorTempLightSoc_3\IAR ARM - Default\find-and-bind-target
[21] = C:\SiliconLabs\SimplicityStudio\v4\developer\sdks\gecko_sdk_suite\v1.1\app\builder\Z3ColorTempLightSoc_3\IAR ARM - Default\groups-server
[22] = C:\SiliconLabs\SimplicityStudio\v4\developer\sdks\gecko_sdk_suite\v1.1\app\builder\Z3ColorTempLightSoc_3\IAR ARM - Default\hal-config\EFR32
[23] = C:\SiliconLabs\SimplicityStudio\v4\developer\sdks\gecko_sdk_suite\v1.1\app\builder\Z3ColorTempLightSoc_3\IAR ARM - Default\hal-library\EFR32
[24] = C:\SiliconLabs\SimplicityStudio\v4\developer\sdks\gecko_sdk_suite\v1.1\app\builder\Z3ColorTempLightSoc_3\IAR ARM - Default\identify
[25] = C:\SiliconLabs\SimplicityStudio\v4\developer\sdks\gecko_sdk_suite\v1.1\app\builder\Z3ColorTempLightSoc_3\IAR ARM - Default\led-temp-pwm
[26] = C:\SiliconLabs\SimplicityStudio\v4\developer\sdks\gecko_sdk_suite\v1.1\app\builder\Z3ColorTempLightSoc_3\IAR ARM - Default\level-control
[27] = C:\SiliconLabs\SimplicityStudio\v4\developer\sdks\gecko_sdk_suite\v1.1\app\builder\Z3ColorTempLightSoc_3\IAR ARM - Default\manufacturing-library-cli
[28] = C:\SiliconLabs\SimplicityStudio\v4\developer\sdks\gecko_sdk_suite\v1.1\app\builder\Z3ColorTempLightSoc_3\IAR ARM - Default\manufacturing-library-ota
[29] = C:\SiliconLabs\SimplicityStudio\v4\developer\sdks\gecko_sdk_suite\v1.1\app\builder\Z3ColorTempLightSoc_3\IAR ARM - Default\network-steering
[30] = C:\SiliconLabs\SimplicityStudio\v4\developer\sdks\gecko_sdk_suite\v1.1\app\builder\Z3ColorTempLightSoc_3\IAR ARM - Default\on-off
[31] = C:\SiliconLabs\SimplicityStudio\v4\developer\sdks\gecko_sdk_suite\v1.1\app\builder\Z3ColorTempLightSoc_3\IAR ARM - Default\ota-bootload
[32] = C:\SiliconLabs\SimplicityStudio\v4\developer\sdks\gecko_sdk_suite\v1.1\app\builder\Z3ColorTempLightSoc_3\IAR ARM - Default\ota-client
[33] = C:\SiliconLabs\SimplicityStudio\v4\developer\sdks\gecko_sdk_suite\v1.1\app\builder\Z3ColorTempLightSoc_3\IAR ARM - Default\ota-client-policy
[34] = C:\SiliconLabs\SimplicityStudio\v4\developer\sdks\gecko_sdk_suite\v1.1\app\builder\Z3ColorTempLightSoc_3\IAR ARM - Default\ota-common
[35] = C:\SiliconLabs\SimplicityStudio\v4\developer\sdks\gecko_sdk_suite\v1.1\app\builder\Z3ColorTempLightSoc_3\IAR ARM - Default\ota-storage-common
[36] = C:\SiliconLabs\SimplicityStudio\v4\developer\sdks\gecko_sdk_suite\v1.1\app\builder\Z3ColorTempLightSoc_3\IAR ARM - Default\ota-storage-simple
[37] = C:\SiliconLabs\SimplicityStudio\v4\developer\sdks\gecko_sdk_suite\v1.1\app\builder\Z3ColorTempLightSoc_3\IAR ARM - Default\ota-storage-simple-eeprom
[38] = C:\SiliconLabs\SimplicityStudio\v4\developer\sdks\gecko_sdk_suite\v1.1\app\builder\Z3ColorTempLightSoc_3\IAR ARM - Default\reporting
[39] = C:\SiliconLabs\SimplicityStudio\v4\developer\sdks\gecko_sdk_suite\v1.1\app\builder\Z3ColorTempLightSoc_3\IAR ARM - Default\scan-dispatch
[40] = C:\SiliconLabs\SimplicityStudio\v4\developer\sdks\gecko_sdk_suite\v1.1\app\builder\Z3ColorTempLightSoc_3\IAR ARM - Default\scenes
[41] = C:\SiliconLabs\SimplicityStudio\v4\developer\sdks\gecko_sdk_suite\v1.1\app\builder\Z3ColorTempLightSoc_3\IAR ARM - Default\sim-eeprom2\EFR32
[42] = C:\SiliconLabs\SimplicityStudio\v4\developer\sdks\gecko_sdk_suite\v1.1\app\builder\Z3ColorTempLightSoc_3\IAR ARM - Default\simple-main
[43] = C:\SiliconLabs\SimplicityStudio\v4\developer\sdks\gecko_sdk_suite\v1.1\app\builder\Z3ColorTempLightSoc_3\IAR ARM - Default\update-tc-link-key
[44] = command line
[45] = binding-table-library.a
[46] = cbke-163k1-stub-library.a
[47] = cbke-283k1-stub-library.a
[48] = cbke-library-dsa-sign-stub.a
[49] = cbke-library-dsa-verify-283k1-stub.a
[50] = cbke-library-dsa-verify-stub.a
[51] = cbke-stub-library.a
[52] = debug-basic-library.a
[53] = debug-extended-stub-library.a
[54] = dl7M_tln.a
[55] = end-device-bind-stub-library.a
[56] = enhanced-beacon-request-stub-library.a
[57] = gp-stub-library.a
[58] = hal-library.a
[59] = install-code-library.a
[60] = librail_efr32xg12_iar_release.a
[61] = m7M_tls.a
[62] = mfglib-library.a
[63] = multi-network-stub-library.a
[64] = packet-validate-library.a
[65] = rf4ce-stack-stub-library.a
[66] = rt7M_tl.a
[67] = security-library-core.a
[68] = security-library-link-keys-stub.a
[69] = sim-eeprom2-1to2-upgrade-library.a
[70] = sim-eeprom2-library.a
[71] = zigbee-pro-leaf-stack.a
[72] = zll-stub-library.a

  177 414 bytes of readonly  code memory
      532 bytes of readwrite code memory
   27 223 bytes of readonly  data memory
   51 431 bytes of readwrite data memory (+ 152 absolute)

Errors: none
Warnings: none
